Archive member included to satisfy reference by file (symbol)

NuttX/nuttx/arch/arm/src/libarch.a(arm_vectors.o)
                              (_vectors)
NuttX/nuttx/arch/arm/src/libarch.a(arm_exception.o)
                              NuttX/nuttx/arch/arm/src/libarch.a(arm_vectors.o) (exception_common)
NuttX/nuttx/arch/arm/src/libarch.a(stm32_start.o)
                              NuttX/nuttx/arch/arm/src/libarch.a(arm_vectors.o) (__start)
NuttX/nuttx/arch/arm/src/libarch.a(stm32_rcc.o)
                              NuttX/nuttx/arch/arm/src/libarch.a(stm32_start.o) (stm32_clockconfig)
NuttX/nuttx/arch/arm/src/libarch.a(stm32_lowputc.o)
                              NuttX/nuttx/arch/arm/src/libarch.a(stm32_start.o) (stm32_lowsetup)
NuttX/nuttx/arch/arm/src/libarch.a(stm32_pwr.o)
                              NuttX/nuttx/arch/arm/src/libarch.a(stm32_rcc.o) (stm32_pwr_initbkp)
NuttX/nuttx/arch/arm/src/libarch.a(arm_modifyreg32.o)
                              NuttX/nuttx/arch/arm/src/libarch.a(stm32_pwr.o) (modifyreg32)
NuttX/nuttx/arch/arm/src/libarch.a(arm_udelay.o)
                              NuttX/nuttx/arch/arm/src/libarch.a(stm32_pwr.o) (up_udelay)
NuttX/nuttx/arch/arm/src/libarch.a(arm_cache.o)
                              NuttX/nuttx/arch/arm/src/libarch.a(stm32_start.o) (up_enable_icache)
NuttX/nuttx/arch/arm/src/libarch.a(arm_doirq.o)
                              NuttX/nuttx/arch/arm/src/libarch.a(arm_exception.o) (arm_doirq)
NuttX/nuttx/arch/arm/src/libarch.a(arm_fpuconfig.o)
                              NuttX/nuttx/arch/arm/src/libarch.a(stm32_start.o) (arm_fpuconfig)
NuttX/nuttx/arch/arm/src/libarch.a(stm32_irq.o)
                              NuttX/nuttx/arch/arm/src/libarch.a(arm_doirq.o) (g_current_regs)
NuttX/nuttx/arch/arm/src/libarch.a(arm_hardfault.o)
                              NuttX/nuttx/arch/arm/src/libarch.a(stm32_irq.o) (arm_hardfault)
NuttX/nuttx/arch/arm/src/libarch.a(arm_svcall.o)
                              NuttX/nuttx/arch/arm/src/libarch.a(stm32_irq.o) (arm_svcall)
NuttX/nuttx/libs/libc/libc.a(arch_memcpy.o)
                              NuttX/nuttx/arch/arm/src/libarch.a(stm32_start.o) (memcpy)
NuttX/nuttx/libs/libc/libc.a(lib_assert.o)
                              NuttX/nuttx/arch/arm/src/libarch.a(arm_hardfault.o) (_assert)
NuttX/nuttx/libs/libc/libc.a(lib_abort.o)
                              (abort)
NuttX/nuttx/libs/libc/libc.a(lib_exit.o)
                              NuttX/nuttx/libs/libc/libc.a(lib_assert.o) (exit)
NuttX/nuttx/libs/libc/libc.a(lib_memset.o)
                              NuttX/nuttx/arch/arm/src/libarch.a(stm32_start.o) (memset)
boards/hkust/nxt-dual/src/libdrivers_board.a(bootloader_main.c.obj)
                              NuttX/nuttx/arch/arm/src/libarch.a(stm32_start.o) (stm32_boardinitialize)
boards/hkust/nxt-dual/src/libdrivers_board.a(usb.c.obj)
                              boards/hkust/nxt-dual/src/libdrivers_board.a(bootloader_main.c.obj) (stm32_usbinitialize)
NuttX/nuttx/sched/libsched.a(nx_start.o)
                              NuttX/nuttx/arch/arm/src/libarch.a(stm32_start.o) (nx_start)
NuttX/nuttx/sched/libsched.a(nx_bringup.o)
                              NuttX/nuttx/sched/libsched.a(nx_start.o) (nx_bringup)
NuttX/nuttx/sched/libsched.a(irq_attach.o)
                              NuttX/nuttx/arch/arm/src/libarch.a(stm32_irq.o) (irq_attach)
NuttX/nuttx/sched/libsched.a(irq_dispatch.o)
                              NuttX/nuttx/arch/arm/src/libarch.a(arm_doirq.o) (irq_dispatch)
NuttX/nuttx/sched/libsched.a(irq_unexpectedisr.o)
                              NuttX/nuttx/sched/libsched.a(irq_attach.o) (irq_unexpected_isr)
NuttX/nuttx/sched/libsched.a(sched_lock.o)
                              NuttX/nuttx/sched/libsched.a(nx_start.o) (sched_lock)
NuttX/nuttx/sched/libsched.a(sched_unlock.o)
                              NuttX/nuttx/sched/libsched.a(nx_start.o) (sched_unlock)
NuttX/nuttx/sched/libsched.a(task_create.o)
                              NuttX/nuttx/sched/libsched.a(nx_bringup.o) (nxtask_create)
NuttX/nuttx/sched/libsched.a(task_init.o)
                              NuttX/nuttx/sched/libsched.a(task_create.o) (nxtask_init)
NuttX/nuttx/sched/libsched.a(task_setup.o)
                              NuttX/nuttx/sched/libsched.a(task_init.o) (nxtask_setup_scheduler)
NuttX/nuttx/sched/libsched.a(task_activate.o)
                              NuttX/nuttx/sched/libsched.a(task_create.o) (nxtask_activate)
NuttX/nuttx/sched/libsched.a(task_start.o)
                              NuttX/nuttx/sched/libsched.a(task_init.o) (nxtask_start)
NuttX/nuttx/sched/libsched.a(exit.o)
                              NuttX/nuttx/libs/libc/libc.a(lib_exit.o) (_exit)
NuttX/nuttx/sched/libsched.a(tls_initinfo.o)
                              NuttX/nuttx/sched/libsched.a(nx_start.o) (tls_init_info)
NuttX/nuttx/sched/libsched.a(group_create.o)
                              NuttX/nuttx/sched/libsched.a(nx_start.o) (group_allocate)
NuttX/nuttx/sched/libsched.a(group_leave.o)
                              NuttX/nuttx/sched/libsched.a(task_init.o) (group_leave)
NuttX/nuttx/sched/libsched.a(group_setupidlefiles.o)
                              NuttX/nuttx/sched/libsched.a(nx_start.o) (group_setupidlefiles)
NuttX/nuttx/sched/libsched.a(group_setuptaskfiles.o)
                              NuttX/nuttx/sched/libsched.a(task_init.o) (group_setuptaskfiles)
NuttX/nuttx/sched/libsched.a(irq_initialize.o)
                              NuttX/nuttx/sched/libsched.a(irq_attach.o) (g_irqvector)
NuttX/nuttx/sched/libsched.a(sched_releasetcb.o)
                              NuttX/nuttx/sched/libsched.a(task_init.o) (nxsched_release_tcb)
NuttX/nuttx/sched/libsched.a(sig_procmask.o)
                              NuttX/nuttx/sched/libsched.a(task_setup.o) (nxsig_procmask)
NuttX/nuttx/sched/libsched.a(sig_unmaskpendingsignal.o)
                              NuttX/nuttx/sched/libsched.a(sig_procmask.o) (nxsig_unmask_pendingsignal)
NuttX/nuttx/sched/libsched.a(sig_removependingsignal.o)
                              NuttX/nuttx/sched/libsched.a(sig_unmaskpendingsignal.o) (nxsig_remove_pendingsignal)
NuttX/nuttx/sched/libsched.a(sig_releasependingsignal.o)
                              NuttX/nuttx/sched/libsched.a(sig_unmaskpendingsignal.o) (nxsig_release_pendingsignal)
NuttX/nuttx/sched/libsched.a(sig_lowest.o)
                              NuttX/nuttx/sched/libsched.a(sig_unmaskpendingsignal.o) (nxsig_lowest)
NuttX/nuttx/sched/libsched.a(sig_cleanup.o)
                              NuttX/nuttx/sched/libsched.a(group_leave.o) (nxsig_release)
NuttX/nuttx/sched/libsched.a(sig_dispatch.o)
                              NuttX/nuttx/sched/libsched.a(sig_unmaskpendingsignal.o) (nxsig_tcbdispatch)
NuttX/nuttx/sched/libsched.a(sig_deliver.o)
                              NuttX/nuttx/sched/libsched.a(sig_dispatch.o) (nxsig_deliver)
NuttX/nuttx/sched/libsched.a(sig_default.o)
                              NuttX/nuttx/sched/libsched.a(task_start.o) (nxsig_default_initialize)
NuttX/nuttx/sched/libsched.a(task_exithook.o)
                              NuttX/nuttx/sched/libsched.a(exit.o) (nxtask_exithook)
NuttX/nuttx/sched/libsched.a(task_recover.o)
                              NuttX/nuttx/sched/libsched.a(task_exithook.o) (nxtask_recover)
NuttX/nuttx/sched/libsched.a(task_initinfo.o)
                              NuttX/nuttx/sched/libsched.a(group_create.o) (task_init_info)
NuttX/nuttx/sched/libsched.a(task_uninitinfo.o)
                              NuttX/nuttx/sched/libsched.a(group_leave.o) (task_uninit_info)
NuttX/nuttx/sched/libsched.a(wd_recover.o)
                              NuttX/nuttx/sched/libsched.a(task_recover.o) (wd_recover)
NuttX/nuttx/sched/libsched.a(group_setupstreams.o)
                              NuttX/nuttx/sched/libsched.a(group_setupidlefiles.o) (group_setupstreams)
NuttX/nuttx/sched/libsched.a(sched_gettcb.o)
                              NuttX/nuttx/sched/libsched.a(sig_dispatch.o) (nxsched_get_tcb)
NuttX/nuttx/sched/libsched.a(sched_suspend.o)
                              NuttX/nuttx/sched/libsched.a(sig_default.o) (nxsched_suspend)
NuttX/nuttx/sched/libsched.a(sched_continue.o)
                              NuttX/nuttx/sched/libsched.a(sig_dispatch.o) (nxsched_continue)
NuttX/nuttx/sched/libsched.a(sem_destroy.o)
                              NuttX/nuttx/sched/libsched.a(task_uninitinfo.o) (nxsem_destroy)
NuttX/nuttx/sched/libsched.a(sem_recover.o)
                              NuttX/nuttx/sched/libsched.a(task_recover.o) (nxsem_recover)
NuttX/nuttx/sched/libsched.a(sem_waitirq.o)
                              NuttX/nuttx/sched/libsched.a(sig_dispatch.o) (nxsem_wait_irq)
NuttX/nuttx/sched/libsched.a(sig_initialize.o)
                              NuttX/nuttx/sched/libsched.a(sig_releasependingsignal.o) (g_sigpendingsignal)
NuttX/nuttx/sched/libsched.a(sig_action.o)
                              NuttX/nuttx/sched/libsched.a(sig_cleanup.o) (nxsig_release_action)
NuttX/nuttx/sched/libsched.a(sig_pending.o)
                              NuttX/nuttx/sched/libsched.a(sig_unmaskpendingsignal.o) (nxsig_pendingset)
NuttX/nuttx/sched/libsched.a(sig_findaction.o)
                              NuttX/nuttx/sched/libsched.a(sig_dispatch.o) (nxsig_find_action)
NuttX/nuttx/sched/libsched.a(sig_allocpendingsigaction.o)
                              NuttX/nuttx/sched/libsched.a(sig_dispatch.o) (nxsig_alloc_pendingsigaction)
NuttX/nuttx/sched/libsched.a(sig_releasependingsigaction.o)
                              NuttX/nuttx/sched/libsched.a(sig_cleanup.o) (nxsig_release_pendingsigaction)
NuttX/nuttx/sched/libsched.a(wd_cancel.o)
                              NuttX/nuttx/sched/libsched.a(wd_recover.o) (wd_cancel)
NuttX/nuttx/sched/libsched.a(sched_addblocked.o)
                              NuttX/nuttx/sched/libsched.a(sched_suspend.o) (nxsched_add_blocked)
NuttX/nuttx/sched/libsched.a(sched_removeblocked.o)
                              NuttX/nuttx/sched/libsched.a(sched_suspend.o) (nxsched_remove_blocked)
NuttX/nuttx/sched/libsched.a(wd_initialize.o)
                              NuttX/nuttx/sched/libsched.a(wd_cancel.o) (g_wdactivelist)
NuttX/nuttx/sched/libsched.a(sched_addprioritized.o)
                              NuttX/nuttx/sched/libsched.a(sched_addblocked.o) (nxsched_add_prioritized)
NuttX/nuttx/binfmt/libbinfmt.a(binfmt_initialize.o)
                              NuttX/nuttx/sched/libsched.a(nx_start.o) (binfmt_initialize)
NuttX/apps/libapps.a(cdcacm_main.c.Users.carbs.Desktop.PX4-Autopilot.platforms.nuttx.NuttX.apps.system.cdcacm.o)
                              boards/hkust/nxt-dual/src/libdrivers_board.a(bootloader_main.c.obj) (sercon_main)
NuttX/nuttx/arch/arm/src/libarch.a(stm32_allocateheap.o)
                              NuttX/nuttx/sched/libsched.a(nx_start.o) (up_allocate_heap)
NuttX/nuttx/arch/arm/src/libarch.a(stm32_gpio.o)
                              boards/hkust/nxt-dual/src/libdrivers_board.a(usb.c.obj) (stm32_configgpio)
NuttX/nuttx/arch/arm/src/libarch.a(arm_assert.o)
                              NuttX/nuttx/libs/libc/libc.a(lib_assert.o) (up_assert)
NuttX/nuttx/arch/arm/src/libarch.a(arm_blocktask.o)
                              NuttX/nuttx/sched/libsched.a(sched_suspend.o) (up_block_task)
NuttX/nuttx/arch/arm/src/libarch.a(arm_createstack.o)
                              NuttX/nuttx/sched/libsched.a(task_init.o) (up_create_stack)
NuttX/nuttx/arch/arm/src/libarch.a(arm_exit.o)
                              NuttX/nuttx/sched/libsched.a(exit.o) (up_exit)
NuttX/nuttx/arch/arm/src/libarch.a(arm_fullcontextrestore.o)
                              NuttX/nuttx/arch/arm/src/libarch.a(arm_exit.o) (arm_fullcontextrestore)
NuttX/nuttx/arch/arm/src/libarch.a(arm_initialize.o)
                              NuttX/nuttx/sched/libsched.a(nx_start.o) (up_initialize)
NuttX/nuttx/arch/arm/src/libarch.a(arm_releasepending.o)
                              NuttX/nuttx/sched/libsched.a(sched_unlock.o) (up_release_pending)
NuttX/nuttx/arch/arm/src/libarch.a(arm_releasestack.o)
                              NuttX/nuttx/sched/libsched.a(task_init.o) (up_release_stack)
NuttX/nuttx/arch/arm/src/libarch.a(arm_stackframe.o)
                              NuttX/nuttx/sched/libsched.a(task_setup.o) (up_stack_frame)
NuttX/nuttx/arch/arm/src/libarch.a(arm_switchcontext.o)
                              NuttX/nuttx/arch/arm/src/libarch.a(arm_blocktask.o) (arm_switchcontext)
NuttX/nuttx/arch/arm/src/libarch.a(arm_unblocktask.o)
                              NuttX/nuttx/sched/libsched.a(task_activate.o) (up_unblock_task)
NuttX/nuttx/arch/arm/src/libarch.a(arm_usestack.o)
                              NuttX/nuttx/sched/libsched.a(task_init.o) (up_use_stack)
NuttX/nuttx/arch/arm/src/libarch.a(arm_checkstack.o)
                              NuttX/nuttx/arch/arm/src/libarch.a(arm_createstack.o) (arm_stack_color)
NuttX/nuttx/arch/arm/src/libarch.a(arm_idle.o)
                              NuttX/nuttx/sched/libsched.a(nx_start.o) (up_idle)
NuttX/nuttx/arch/arm/src/libarch.a(arm_initialstate.o)
                              NuttX/nuttx/sched/libsched.a(nx_start.o) (up_initial_state)
NuttX/nuttx/arch/arm/src/libarch.a(arm_schedulesigaction.o)
                              NuttX/nuttx/sched/libsched.a(sig_dispatch.o) (up_schedule_sigaction)
NuttX/nuttx/arch/arm/src/libarch.a(arm_sigdeliver.o)
                              NuttX/nuttx/arch/arm/src/libarch.a(arm_schedulesigaction.o) (arm_sigdeliver)
NuttX/nuttx/arch/arm/src/libarch.a(stm32_serial.o)
                              NuttX/nuttx/arch/arm/src/libarch.a(arm_initialize.o) (arm_serialinit)
NuttX/nuttx/arch/arm/src/libarch.a(stm32_otgdev.o)
                              NuttX/nuttx/arch/arm/src/libarch.a(arm_initialize.o) (arm_usbinitialize)
NuttX/nuttx/arch/arm/src/libarch.a(arm_mdelay.o)
                              NuttX/nuttx/arch/arm/src/libarch.a(stm32_otgdev.o) (up_mdelay)
NuttX/nuttx/mm/libmm.a(umm_initialize.o)
                              NuttX/nuttx/sched/libsched.a(nx_start.o) (umm_initialize)
NuttX/nuttx/mm/libmm.a(umm_free.o)
                              NuttX/nuttx/sched/libsched.a(task_create.o) (free)
NuttX/nuttx/mm/libmm.a(umm_malloc.o)
                              NuttX/nuttx/sched/libsched.a(sig_dispatch.o) (malloc)
NuttX/nuttx/mm/libmm.a(umm_zalloc.o)
                              NuttX/nuttx/sched/libsched.a(nx_start.o) (zalloc)
NuttX/nuttx/mm/libmm.a(mm_initialize.o)
                              NuttX/nuttx/mm/libmm.a(umm_initialize.o) (mm_initialize)
NuttX/nuttx/mm/libmm.a(mm_sem.o)
                              NuttX/nuttx/mm/libmm.a(mm_initialize.o) (mm_seminitialize)
NuttX/nuttx/mm/libmm.a(mm_addfreechunk.o)
                              NuttX/nuttx/mm/libmm.a(mm_initialize.o) (mm_addfreechunk)
NuttX/nuttx/mm/libmm.a(mm_size2ndx.o)
                              NuttX/nuttx/mm/libmm.a(mm_addfreechunk.o) (mm_size2ndx)
NuttX/nuttx/mm/libmm.a(mm_free.o)
                              NuttX/nuttx/mm/libmm.a(umm_free.o) (mm_free)
NuttX/nuttx/mm/libmm.a(mm_malloc.o)
                              NuttX/nuttx/mm/libmm.a(umm_malloc.o) (mm_malloc)
NuttX/nuttx/mm/libmm.a(mm_zalloc.o)
                              NuttX/nuttx/mm/libmm.a(umm_zalloc.o) (mm_zalloc)
NuttX/nuttx/mm/libmm.a(umm_globals.o)
                              NuttX/nuttx/mm/libmm.a(umm_initialize.o) (g_mmheap)
NuttX/nuttx/libs/libc/libc.a(lib_errno.o)
                              NuttX/nuttx/sched/libsched.a(task_create.o) (__errno)
NuttX/nuttx/libs/libc/libc.a(sq_addlast.o)
                              NuttX/nuttx/sched/libsched.a(sig_releasependingsignal.o) (sq_addlast)
NuttX/nuttx/libs/libc/libc.a(sq_rem.o)
                              NuttX/nuttx/sched/libsched.a(sig_deliver.o) (sq_rem)
NuttX/nuttx/libs/libc/libc.a(sq_remfirst.o)
                              NuttX/nuttx/sched/libsched.a(sig_removependingsignal.o) (sq_remfirst)
NuttX/nuttx/libs/libc/libc.a(sq_remafter.o)
                              NuttX/nuttx/sched/libsched.a(sig_removependingsignal.o) (sq_remafter)
NuttX/nuttx/libs/libc/libc.a(dq_addlast.o)
                              NuttX/nuttx/sched/libsched.a(sched_addblocked.o) (dq_addlast)
NuttX/nuttx/libs/libc/libc.a(dq_addfirst.o)
                              NuttX/nuttx/sched/libsched.a(nx_start.o) (dq_addfirst)
NuttX/nuttx/libs/libc/libc.a(dq_rem.o)
                              NuttX/nuttx/sched/libsched.a(task_init.o) (dq_rem)
NuttX/nuttx/libs/libc/libc.a(task_startup.o)
                              NuttX/nuttx/sched/libsched.a(task_start.o) (nxtask_startup)
NuttX/nuttx/libs/libc/libc.a(sem_init.o)
                              NuttX/nuttx/sched/libsched.a(task_initinfo.o) (nxsem_init)
NuttX/nuttx/libs/libc/libc.a(sem_getvalue.o)
                              NuttX/nuttx/mm/libmm.a(mm_sem.o) (sem_getvalue)
NuttX/nuttx/libs/libc/libc.a(sig_addset.o)
                              NuttX/nuttx/sched/libsched.a(sig_default.o) (nxsig_addset)
NuttX/nuttx/libs/libc/libc.a(sig_delset.o)
                              NuttX/nuttx/sched/libsched.a(sig_unmaskpendingsignal.o) (nxsig_delset)
NuttX/nuttx/libs/libc/libc.a(sig_emptyset.o)
                              NuttX/nuttx/sched/libsched.a(sig_default.o) (sigemptyset)
NuttX/nuttx/libs/libc/libc.a(sig_ismember.o)
                              NuttX/nuttx/sched/libsched.a(sig_lowest.o) (nxsig_ismember)
NuttX/nuttx/libs/libc/libc.a(lib_printf.o)
                              NuttX/apps/libapps.a(cdcacm_main.c.Users.carbs.Desktop.PX4-Autopilot.platforms.nuttx.NuttX.apps.system.cdcacm.o) (printf)
NuttX/nuttx/libs/libc/libc.a(lib_libflushall.o)
                              NuttX/nuttx/sched/libsched.a(task_exithook.o) (lib_flushall)
NuttX/nuttx/libs/libc/libc.a(lib_libfflush.o)
                              NuttX/nuttx/libs/libc/libc.a(lib_libflushall.o) (lib_fflush)
NuttX/nuttx/libs/libc/libc.a(lib_vfprintf.o)
                              NuttX/nuttx/libs/libc/libc.a(lib_printf.o) (vfprintf)
NuttX/nuttx/libs/libc/libc.a(lib_libstream.o)
                              NuttX/nuttx/sched/libsched.a(group_create.o) (lib_stream_initialize)
NuttX/nuttx/libs/libc/libc.a(lib_libfilesem.o)
                              NuttX/nuttx/libs/libc/libc.a(lib_libstream.o) (lib_sem_initialize)
NuttX/nuttx/libs/libc/libc.a(lib_stdoutstream.o)
                              NuttX/nuttx/libs/libc/libc.a(lib_vfprintf.o) (lib_stdoutstream)
NuttX/nuttx/libs/libc/libc.a(lib_strcpy.o)
                              NuttX/nuttx/sched/libsched.a(task_setup.o) (strcpy)
NuttX/nuttx/libs/libc/libc.a(lib_strlcpy.o)
                              NuttX/nuttx/sched/libsched.a(nx_start.o) (strlcpy)
NuttX/nuttx/libs/libc/libc.a(lib_strlen.o)
                              NuttX/nuttx/sched/libsched.a(task_setup.o) (strlen)
NuttX/nuttx/libs/libc/libc.a(lib_strncpy.o)
                              NuttX/nuttx/sched/libsched.a(task_setup.o) (strncpy)
NuttX/nuttx/libs/libc/libc.a(lib_cfspeed.o)
                              NuttX/nuttx/arch/arm/src/libarch.a(stm32_serial.o) (cfsetspeed)
NuttX/nuttx/libs/libc/libc.a(tls_getinfo.o)
                              NuttX/nuttx/libs/libc/libc.a(lib_errno.o) (tls_get_info)
NuttX/nuttx/libs/libc/libc.a(lib_cxx_initialize.o)
                              NuttX/nuttx/libs/libc/libc.a(task_startup.o) (lib_cxx_initialize)
NuttX/nuttx/libs/libc/libc.a(lib_libvsprintf.o)
                              NuttX/nuttx/libs/libc/libc.a(lib_vfprintf.o) (lib_vsprintf)
NuttX/nuttx/libs/libc/libc.a(lib_ultoa_invert.o)
                              NuttX/nuttx/libs/libc/libc.a(lib_libvsprintf.o) (__ultoa_invert)
NuttX/nuttx/libs/libc/libc.a(lib_dtoa_engine.o)
                              NuttX/nuttx/libs/libc/libc.a(lib_libvsprintf.o) (__dtoa_engine)
NuttX/nuttx/libs/libc/libc.a(lib_dtoa_data.o)
                              NuttX/nuttx/libs/libc/libc.a(lib_dtoa_engine.o) (g_dtoa_round)
NuttX/nuttx/libs/libc/libc.a(lib_fputc.o)
                              NuttX/nuttx/libs/libc/libc.a(lib_stdoutstream.o) (fputc)
NuttX/nuttx/libs/libc/libc.a(lib_libnoflush.o)
                              NuttX/nuttx/libs/libc/libc.a(lib_stdoutstream.o) (lib_noflush)
NuttX/nuttx/libs/libc/libc.a(lib_strnlen.o)
                              NuttX/nuttx/libs/libc/libc.a(lib_libvsprintf.o) (strnlen)
NuttX/nuttx/libs/libc/libc.a(lib_libfwrite.o)
                              NuttX/nuttx/libs/libc/libc.a(lib_fputc.o) (lib_fwrite)
NuttX/nuttx/libs/libc/libc.a(lib_rdflush.o)
                              NuttX/nuttx/libs/libc/libc.a(lib_libfwrite.o) (lib_rdflush)
NuttX/nuttx/libs/libc/libc.a(lib_fseek.o)
                              NuttX/nuttx/libs/libc/libc.a(lib_rdflush.o) (fseek)
NuttX/nuttx/libs/libc/libc.a(lib_fseeko.o)
                              NuttX/nuttx/libs/libc/libc.a(lib_fseek.o) (fseeko)
NuttX/nuttx/libs/libc/libc.a(lib_wrflush.o)
                              NuttX/nuttx/libs/libc/libc.a(lib_fseeko.o) (lib_wrflush)
platforms/nuttx/src/bootloader/common/libbootloader.a(bl.c.obj)
                              boards/hkust/nxt-dual/src/libdrivers_board.a(bootloader_main.c.obj) (sys_tick_handler)
platforms/nuttx/src/bootloader/common/lib/libbootloader_lib.a(cdcacm.c.obj)
                              platforms/nuttx/src/bootloader/common/libbootloader.a(bl.c.obj) (usb_cinit)
platforms/nuttx/src/bootloader/common/lib/libbootloader_lib.a(uart.c.obj)
                              platforms/nuttx/src/bootloader/common/libbootloader.a(bl.c.obj) (uart_cinit)
NuttX/nuttx/boards/libboards.a(boardctl.o)
                              NuttX/apps/libapps.a(cdcacm_main.c.Users.carbs.Desktop.PX4-Autopilot.platforms.nuttx.NuttX.apps.system.cdcacm.o) (boardctl)
NuttX/nuttx/drivers/libdrivers.a(drivers_initialize.o)
                              NuttX/nuttx/sched/libsched.a(nx_start.o) (drivers_initialize)
NuttX/nuttx/drivers/libdrivers.a(dev_null.o)
                              NuttX/nuttx/drivers/libdrivers.a(drivers_initialize.o) (devnull_register)
NuttX/nuttx/drivers/libdrivers.a(serial.o)
                              NuttX/nuttx/arch/arm/src/libarch.a(stm32_serial.o) (uart_register)
NuttX/nuttx/drivers/libdrivers.a(serial_io.o)
                              NuttX/nuttx/arch/arm/src/libarch.a(stm32_serial.o) (uart_xmitchars)
NuttX/nuttx/drivers/libdrivers.a(syslog_flush.o)
                              NuttX/nuttx/arch/arm/src/libarch.a(arm_assert.o) (syslog_flush)
NuttX/nuttx/drivers/libdrivers.a(syslog_initialize.o)
                              NuttX/nuttx/drivers/libdrivers.a(drivers_initialize.o) (syslog_initialize)
NuttX/nuttx/drivers/libdrivers.a(cdcacm.o)
                              NuttX/nuttx/boards/libboards.a(boardctl.o) (cdcacm_initialize)
NuttX/nuttx/drivers/libdrivers.a(cdcacm_desc.o)
                              NuttX/nuttx/drivers/libdrivers.a(cdcacm.o) (cdcacm_mkstrdesc)
NuttX/nuttx/drivers/libdrivers.a(syslog_channel.o)
                              NuttX/nuttx/drivers/libdrivers.a(syslog_flush.o) (g_syslog_channel)
NuttX/nuttx/fs/libfs.a(fs_initialize.o)
                              NuttX/nuttx/sched/libsched.a(nx_start.o) (fs_initialize)
NuttX/nuttx/fs/libfs.a(fs_files.o)
                              NuttX/nuttx/sched/libsched.a(group_create.o) (files_initlist)
NuttX/nuttx/fs/libfs.a(fs_inode.o)
                              NuttX/nuttx/fs/libfs.a(fs_initialize.o) (inode_initialize)
NuttX/nuttx/fs/libfs.a(fs_inodereserve.o)
                              NuttX/nuttx/fs/libfs.a(fs_inode.o) (inode_root_reserve)
NuttX/nuttx/fs/libfs.a(fs_inodesearch.o)
                              NuttX/nuttx/fs/libfs.a(fs_inodereserve.o) (inode_nextname)
NuttX/nuttx/fs/libfs.a(fs_close.o)
                              NuttX/nuttx/fs/libfs.a(fs_files.o) (file_close)
NuttX/nuttx/fs/libfs.a(fs_dup2.o)
                              NuttX/nuttx/fs/libfs.a(fs_files.o) (file_dup2)
NuttX/nuttx/fs/libfs.a(fs_lseek.o)
                              NuttX/nuttx/libs/libc/libc.a(lib_fseeko.o) (lseek)
NuttX/nuttx/fs/libfs.a(fs_open.o)
                              platforms/nuttx/src/bootloader/common/lib/libbootloader_lib.a(cdcacm.c.obj) (open)
NuttX/nuttx/fs/libfs.a(fs_read.o)
                              platforms/nuttx/src/bootloader/common/lib/libbootloader_lib.a(cdcacm.c.obj) (read)
NuttX/nuttx/fs/libfs.a(fs_write.o)
                              NuttX/nuttx/libs/libc/libc.a(lib_libfflush.o) (write)
NuttX/nuttx/fs/libfs.a(fs_dir.o)
                              NuttX/nuttx/fs/libfs.a(fs_open.o) (dir_allocate)
NuttX/nuttx/fs/libfs.a(fs_fdopen.o)
                              NuttX/nuttx/sched/libsched.a(group_setupstreams.o) (fs_fdopen)
NuttX/nuttx/fs/libfs.a(fs_registerdriver.o)
                              NuttX/nuttx/drivers/libdrivers.a(dev_null.o) (register_driver)
NuttX/nuttx/fs/libfs.a(fs_unregisterdriver.o)
                              NuttX/nuttx/drivers/libdrivers.a(cdcacm.o) (unregister_driver)
NuttX/nuttx/fs/libfs.a(fs_inodeaddref.o)
                              NuttX/nuttx/fs/libfs.a(fs_dup2.o) (inode_addref)
NuttX/nuttx/fs/libfs.a(fs_inodefind.o)
                              NuttX/nuttx/fs/libfs.a(fs_open.o) (inode_find)
NuttX/nuttx/fs/libfs.a(fs_inoderelease.o)
                              NuttX/nuttx/fs/libfs.a(fs_close.o) (inode_release)
NuttX/nuttx/fs/libfs.a(fs_inoderemove.o)
                              NuttX/nuttx/fs/libfs.a(fs_unregisterdriver.o) (inode_remove)
NuttX/nuttx/fs/libfs.a(fs_inodefree.o)
                              NuttX/nuttx/fs/libfs.a(fs_inoderelease.o) (inode_free)
NuttX/nuttx/sched/libsched.a(clock_initialize.o)
                              NuttX/nuttx/drivers/libdrivers.a(serial.o) (g_system_timer)
NuttX/nuttx/sched/libsched.a(sched_getfiles.o)
                              NuttX/nuttx/fs/libfs.a(fs_files.o) (nxsched_get_files)
NuttX/nuttx/sched/libsched.a(sched_addreadytorun.o)
                              NuttX/nuttx/arch/arm/src/libarch.a(arm_unblocktask.o) (nxsched_add_readytorun)
NuttX/nuttx/sched/libsched.a(sched_removereadytorun.o)
                              NuttX/nuttx/arch/arm/src/libarch.a(arm_blocktask.o) (nxsched_remove_readytorun)
NuttX/nuttx/sched/libsched.a(sched_mergepending.o)
                              NuttX/nuttx/arch/arm/src/libarch.a(arm_blocktask.o) (nxsched_merge_pending)
NuttX/nuttx/sched/libsched.a(sched_getstreams.o)
                              NuttX/nuttx/libs/libc/libc.a(lib_printf.o) (nxsched_get_streams)
NuttX/nuttx/sched/libsched.a(sched_idletask.o)
                              NuttX/nuttx/drivers/libdrivers.a(serial.o) (sched_idletask)
NuttX/nuttx/sched/libsched.a(sched_self.o)
                              NuttX/nuttx/fs/libfs.a(fs_fdopen.o) (nxsched_self)
NuttX/nuttx/sched/libsched.a(sched_get_stackinfo.o)
                              NuttX/nuttx/libs/libc/libc.a(tls_getinfo.o) (nxsched_get_stackinfo)
NuttX/nuttx/sched/libsched.a(sem_wait.o)
                              NuttX/nuttx/drivers/libdrivers.a(serial.o) (nxsem_wait)
NuttX/nuttx/sched/libsched.a(sem_post.o)
                              NuttX/nuttx/drivers/libdrivers.a(dev_null.o) (nxsem_post)
NuttX/nuttx/sched/libsched.a(sem_reset.o)
                              NuttX/nuttx/drivers/libdrivers.a(serial.o) (nxsem_reset)
NuttX/nuttx/sched/libsched.a(sig_kill.o)
                              NuttX/nuttx/drivers/libdrivers.a(serial_io.o) (nxsig_kill)
NuttX/nuttx/sched/libsched.a(sig_usleep.o)
                              NuttX/nuttx/drivers/libdrivers.a(serial.o) (nxsig_usleep)
NuttX/nuttx/sched/libsched.a(task_exit.o)
                              NuttX/nuttx/arch/arm/src/libarch.a(arm_exit.o) (nxtask_exit)
NuttX/nuttx/sched/libsched.a(task_getpid.o)
                              NuttX/nuttx/mm/libmm.a(mm_sem.o) (getpid)
NuttX/nuttx/sched/libsched.a(task_terminate.o)
                              NuttX/nuttx/sched/libsched.a(task_exit.o) (nxtask_terminate)
NuttX/nuttx/sched/libsched.a(task_gettid.o)
                              NuttX/nuttx/libs/libc/libc.a(lib_libfilesem.o) (gettid)
NuttX/nuttx/sched/libsched.a(wd_start.o)
                              NuttX/nuttx/drivers/libdrivers.a(cdcacm.o) (wd_start)
NuttX/nuttx/sched/libsched.a(sig_nanosleep.o)
                              NuttX/nuttx/sched/libsched.a(sig_usleep.o) (nxsig_nanosleep)
NuttX/nuttx/sched/libsched.a(clock_gettime.o)
                              NuttX/nuttx/sched/libsched.a(sig_nanosleep.o) (clock_gettime)
NuttX/nuttx/sched/libsched.a(clock_systime_timespec.o)
                              NuttX/nuttx/sched/libsched.a(clock_gettime.o) (clock_systime_timespec)
NuttX/nuttx/sched/libsched.a(sig_timedwait.o)
                              NuttX/nuttx/sched/libsched.a(sig_nanosleep.o) (nxsig_timedwait)
NuttX/nuttx/arch/arm/src/libarch.a(stm32_timerisr.o)
                              NuttX/nuttx/sched/libsched.a(clock_initialize.o) (up_timer_initialize)
NuttX/nuttx/arch/arm/src/libarch.a(arm_nputs.o)
                              NuttX/nuttx/drivers/libdrivers.a(syslog_channel.o) (up_nputs)
NuttX/nuttx/mm/libmm.a(umm_realloc.o)
                              NuttX/nuttx/fs/libfs.a(fs_files.o) (realloc)
NuttX/nuttx/mm/libmm.a(mm_realloc.o)
                              NuttX/nuttx/mm/libmm.a(umm_realloc.o) (mm_realloc)
NuttX/nuttx/mm/libmm.a(mm_shrinkchunk.o)
                              NuttX/nuttx/mm/libmm.a(mm_realloc.o) (mm_shrinkchunk)
NuttX/nuttx/libs/libc/libc.a(lib_umask.o)
                              NuttX/nuttx/fs/libfs.a(fs_open.o) (getumask)
NuttX/nuttx/libs/libc/libc.a(sq_addfirst.o)
                              NuttX/nuttx/sched/libsched.a(wd_start.o) (sq_addfirst)
NuttX/nuttx/libs/libc/libc.a(sq_addafter.o)
                              NuttX/nuttx/sched/libsched.a(wd_start.o) (sq_addafter)
NuttX/nuttx/libs/libc/libc.a(clock_ticks2time.o)
                              NuttX/nuttx/sched/libsched.a(sig_nanosleep.o) (clock_ticks2time)
NuttX/nuttx/libs/libc/libc.a(clock_time2ticks.o)
                              NuttX/nuttx/sched/libsched.a(sig_nanosleep.o) (clock_time2ticks)
NuttX/nuttx/libs/libc/libc.a(clock_timespec_subtract.o)
                              NuttX/nuttx/sched/libsched.a(sig_nanosleep.o) (clock_timespec_subtract)
NuttX/nuttx/libs/libc/libc.a(sem_setprotocol.o)
                              NuttX/nuttx/drivers/libdrivers.a(serial.o) (nxsem_set_protocol)
NuttX/nuttx/libs/libc/libc.a(lib_asprintf.o)
                              NuttX/nuttx/fs/libfs.a(fs_inodesearch.o) (asprintf)
NuttX/nuttx/libs/libc/libc.a(lib_snprintf.o)
                              NuttX/nuttx/drivers/libdrivers.a(cdcacm.o) (snprintf)
NuttX/nuttx/libs/libc/libc.a(lib_vasprintf.o)
                              NuttX/nuttx/libs/libc/libc.a(lib_asprintf.o) (vasprintf)
NuttX/nuttx/libs/libc/libc.a(lib_atol.o)
                              platforms/nuttx/src/bootloader/common/lib/libbootloader_lib.a(uart.c.obj) (atol)
NuttX/nuttx/libs/libc/libc.a(lib_strtol.o)
                              NuttX/nuttx/libs/libc/libc.a(lib_atol.o) (strtol)
NuttX/nuttx/libs/libc/libc.a(lib_strtoul.o)
                              NuttX/nuttx/libs/libc/libc.a(lib_strtol.o) (strtoul)
NuttX/nuttx/libs/libc/libc.a(lib_checkbase.o)
                              NuttX/nuttx/libs/libc/libc.a(lib_strtoul.o) (lib_checkbase)
NuttX/nuttx/libs/libc/libc.a(lib_memoutstream.o)
                              NuttX/nuttx/libs/libc/libc.a(lib_snprintf.o) (lib_memoutstream)
NuttX/nuttx/libs/libc/libc.a(lib_nulloutstream.o)
                              NuttX/nuttx/libs/libc/libc.a(lib_snprintf.o) (lib_nulloutstream)
NuttX/nuttx/libs/libc/libc.a(lib_isbasedigit.o)
                              NuttX/nuttx/libs/libc/libc.a(lib_strtoul.o) (lib_isbasedigit)
NuttX/nuttx/libs/libc/libc.a(lib_skipspace.o)
                              NuttX/nuttx/libs/libc/libc.a(lib_strtol.o) (lib_skipspace)
NuttX/nuttx/libs/libc/libc.a(lib_strdup.o)
                              platforms/nuttx/src/bootloader/common/lib/libbootloader_lib.a(cdcacm.c.obj) (strdup)
NuttX/nuttx/libs/libc/libc.a(lib_strtok.o)
                              platforms/nuttx/src/bootloader/common/lib/libbootloader_lib.a(cdcacm.c.obj) (strtok)
NuttX/nuttx/libs/libc/libc.a(lib_strtokr.o)
                              NuttX/nuttx/libs/libc/libc.a(lib_strtok.o) (strtok_r)
NuttX/nuttx/libs/libc/libc.a(lib_strchr.o)
                              NuttX/nuttx/libs/libc/libc.a(lib_strtokr.o) (strchr)
NuttX/nuttx/libs/libc/libc.a(lib_tcgetattr.o)
                              platforms/nuttx/src/bootloader/common/lib/libbootloader_lib.a(uart.c.obj) (tcgetattr)
NuttX/nuttx/libs/libc/libc.a(lib_tcsetattr.o)
                              platforms/nuttx/src/bootloader/common/lib/libbootloader_lib.a(uart.c.obj) (tcsetattr)
NuttX/nuttx/libs/libc/libc.a(lib_calendar2utc.o)
                              NuttX/nuttx/sched/libsched.a(clock_initialize.o) (clock_calendar2utc)
NuttX/nuttx/libs/libc/libc.a(lib_daysbeforemonth.o)
                              NuttX/nuttx/libs/libc/libc.a(lib_calendar2utc.o) (clock_daysbeforemonth)
NuttX/nuttx/libs/libc/libc.a(lib_isleapyear.o)
                              NuttX/nuttx/libs/libc/libc.a(lib_calendar2utc.o) (clock_isleapyear)
NuttX/nuttx/libs/libc/libc.a(task_getinfo.o)
                              NuttX/nuttx/libs/libc/libc.a(lib_umask.o) (task_get_info)
NuttX/nuttx/libs/libc/libc.a(lib_isspace.o)
                              NuttX/nuttx/libs/libc/libc.a(lib_skipspace.o) (isspace)
NuttX/nuttx/libs/libc/libc.a(lib_tcflush.o)
                              NuttX/nuttx/libs/libc/libc.a(lib_tcsetattr.o) (tcflush)
NuttX/nuttx/libs/libc/libc.a(lib_tcdrain.o)
                              NuttX/nuttx/libs/libc/libc.a(lib_tcsetattr.o) (tcdrain)
NuttX/nuttx/fs/libfs.a(fs_ioctl.o)
                              NuttX/nuttx/libs/libc/libc.a(lib_tcgetattr.o) (ioctl)
NuttX/nuttx/fs/libfs.a(fs_inodegetpath.o)
                              NuttX/nuttx/fs/libfs.a(fs_ioctl.o) (inode_getpath)
NuttX/nuttx/sched/libsched.a(sched_processtimer.o)
                              NuttX/nuttx/arch/arm/src/libarch.a(stm32_timerisr.o) (nxsched_process_timer)
NuttX/nuttx/libs/libc/libc.a(lib_strcat.o)
                              NuttX/nuttx/fs/libfs.a(fs_inodegetpath.o) (strcat)
/opt/homebrew/Cellar/arm-gcc-bin@13/13.2.rel1/bin/../lib/gcc/arm-none-eabi/13.2.1/thumb/v7e-m+dp/hard/libgcc.a(_aeabi_ldivmod.o)
                              NuttX/nuttx/libs/libc/libc.a(lib_dtoa_engine.o) (__aeabi_ldivmod)
/opt/homebrew/Cellar/arm-gcc-bin@13/13.2.rel1/bin/../lib/gcc/arm-none-eabi/13.2.1/thumb/v7e-m+dp/hard/libgcc.a(_aeabi_uldivmod.o)
                              NuttX/nuttx/libs/libc/libc.a(lib_ultoa_invert.o) (__aeabi_uldivmod)
/opt/homebrew/Cellar/arm-gcc-bin@13/13.2.rel1/bin/../lib/gcc/arm-none-eabi/13.2.1/thumb/v7e-m+dp/hard/libgcc.a(_fixunsdfdi.o)
                              NuttX/nuttx/libs/libc/libc.a(lib_dtoa_engine.o) (__aeabi_d2ulz)
/opt/homebrew/Cellar/arm-gcc-bin@13/13.2.rel1/bin/../lib/gcc/arm-none-eabi/13.2.1/thumb/v7e-m+dp/hard/libgcc.a(_udivmoddi4.o)
                              /opt/homebrew/Cellar/arm-gcc-bin@13/13.2.rel1/bin/../lib/gcc/arm-none-eabi/13.2.1/thumb/v7e-m+dp/hard/libgcc.a(_aeabi_ldivmod.o) (__udivmoddi4)
/opt/homebrew/Cellar/arm-gcc-bin@13/13.2.rel1/bin/../lib/gcc/arm-none-eabi/13.2.1/thumb/v7e-m+dp/hard/libgcc.a(_dvmd_tls.o)
                              /opt/homebrew/Cellar/arm-gcc-bin@13/13.2.rel1/bin/../lib/gcc/arm-none-eabi/13.2.1/thumb/v7e-m+dp/hard/libgcc.a(_aeabi_ldivmod.o) (__aeabi_ldiv0)
platforms/nuttx/src/bootloader/stm/stm32h7/arch_bootloader/libarch_bootloader.a(main.c.obj)
                              platforms/nuttx/src/bootloader/common/libbootloader.a(bl.c.obj) (board_get_devices)
platforms/nuttx/src/bootloader/stm/stm32h7/arch_bootloader/libarch_bootloader.a(systick.c.obj)
                              platforms/nuttx/src/bootloader/stm/stm32h7/arch_bootloader/libarch_bootloader.a(main.c.obj) (systick_set_reload)
platforms/nuttx/src/px4/stm/stm32h7/board_reset/libarch_board_reset.a(board_reset.cpp.obj)
                              NuttX/nuttx/arch/arm/src/libarch.a(arm_assert.o) (board_reset)
NuttX/nuttx/arch/arm/src/libarch.a(stm32_flash.o)
                              platforms/nuttx/src/bootloader/stm/stm32h7/arch_bootloader/libarch_bootloader.a(main.c.obj) (stm32h7_flash_unlock)
NuttX/nuttx/arch/arm/src/libarch.a(arm_systemreset.o)
                              platforms/nuttx/src/px4/stm/stm32h7/board_reset/libarch_board_reset.a(board_reset.cpp.obj) (up_systemreset)
platforms/nuttx/src/bootloader/common/lib/libbootloader_lib.a(flash_cache.c.obj)
                              platforms/nuttx/src/bootloader/stm/stm32h7/arch_bootloader/libarch_bootloader.a(main.c.obj) (fc_reset)

Discarded input sections

 .text          0x00000000        0x0 platforms/nuttx/CMakeFiles/px4.dir/__/common/empty.c.obj
 .data          0x00000000        0x0 platforms/nuttx/CMakeFiles/px4.dir/__/common/empty.c.obj
 .bss           0x00000000        0x0 platforms/nuttx/CMakeFiles/px4.dir/__/common/empty.c.obj
 .debug_info    0x00000000       0x6c platforms/nuttx/CMakeFiles/px4.dir/__/common/empty.c.obj
 .debug_abbrev  0x00000000       0x26 platforms/nuttx/CMakeFiles/px4.dir/__/common/empty.c.obj
 .debug_aranges
                0x00000000       0x18 platforms/nuttx/CMakeFiles/px4.dir/__/common/empty.c.obj
 .debug_line    0x00000000       0x5c platforms/nuttx/CMakeFiles/px4.dir/__/common/empty.c.obj
 .debug_str     0x00000000      0x25f platforms/nuttx/CMakeFiles/px4.dir/__/common/empty.c.obj
 .comment       0x00000000       0x45 platforms/nuttx/CMakeFiles/px4.dir/__/common/empty.c.obj
 .ARM.attributes
                0x00000000       0x32 platforms/nuttx/CMakeFiles/px4.dir/__/common/empty.c.obj
 .text          0x00000000        0x0 NuttX/nuttx/arch/arm/src/libarch.a(arm_vectors.o)
 .data          0x00000000        0x0 NuttX/nuttx/arch/arm/src/libarch.a(arm_vectors.o)
 .bss           0x00000000        0x0 NuttX/nuttx/arch/arm/src/libarch.a(arm_vectors.o)
 .text          0x00000000        0x0 NuttX/nuttx/arch/arm/src/libarch.a(arm_exception.o)
 .data          0x00000000        0x0 NuttX/nuttx/arch/arm/src/libarch.a(arm_exception.o)
 .text          0x00000000        0x0 NuttX/nuttx/arch/arm/src/libarch.a(stm32_start.o)
 .data          0x00000000        0x0 NuttX/nuttx/arch/arm/src/libarch.a(stm32_start.o)
 .bss           0x00000000        0x0 NuttX/nuttx/arch/arm/src/libarch.a(stm32_start.o)
 .text          0x00000000        0x0 NuttX/nuttx/arch/arm/src/libarch.a(stm32_rcc.o)
 .data          0x00000000        0x0 NuttX/nuttx/arch/arm/src/libarch.a(stm32_rcc.o)
 .bss           0x00000000        0x0 NuttX/nuttx/arch/arm/src/libarch.a(stm32_rcc.o)
 .text          0x00000000        0x0 NuttX/nuttx/arch/arm/src/libarch.a(stm32_lowputc.o)
 .data          0x00000000        0x0 NuttX/nuttx/arch/arm/src/libarch.a(stm32_lowputc.o)
 .bss           0x00000000        0x0 NuttX/nuttx/arch/arm/src/libarch.a(stm32_lowputc.o)
 .text.arm_lowputc
                0x00000000        0x2 NuttX/nuttx/arch/arm/src/libarch.a(stm32_lowputc.o)
 .text          0x00000000        0x0 NuttX/nuttx/arch/arm/src/libarch.a(stm32_pwr.o)
 .data          0x00000000        0x0 NuttX/nuttx/arch/arm/src/libarch.a(stm32_pwr.o)
 .bss           0x00000000        0x0 NuttX/nuttx/arch/arm/src/libarch.a(stm32_pwr.o)
 .text.stm32_pwr_setpvd
                0x00000000       0x1c NuttX/nuttx/arch/arm/src/libarch.a(stm32_pwr.o)
 .text.stm32_pwr_enablepvd
                0x00000000       0x10 NuttX/nuttx/arch/arm/src/libarch.a(stm32_pwr.o)
 .text.stm32_pwr_disablepvd
                0x00000000       0x10 NuttX/nuttx/arch/arm/src/libarch.a(stm32_pwr.o)
 .text.stm32_pwr_enablebreg
                0x00000000       0x58 NuttX/nuttx/arch/arm/src/libarch.a(stm32_pwr.o)
 .text.stm32_pwr_configurewkup
                0x00000000       0x74 NuttX/nuttx/arch/arm/src/libarch.a(stm32_pwr.o)
 .text.stm32_pwr_setvbatcharge
                0x00000000       0x48 NuttX/nuttx/arch/arm/src/libarch.a(stm32_pwr.o)
 .text          0x00000000        0x0 NuttX/nuttx/arch/arm/src/libarch.a(arm_modifyreg32.o)
 .data          0x00000000        0x0 NuttX/nuttx/arch/arm/src/libarch.a(arm_modifyreg32.o)
 .bss           0x00000000        0x0 NuttX/nuttx/arch/arm/src/libarch.a(arm_modifyreg32.o)
 .text          0x00000000        0x0 NuttX/nuttx/arch/arm/src/libarch.a(arm_udelay.o)
 .data          0x00000000        0x0 NuttX/nuttx/arch/arm/src/libarch.a(arm_udelay.o)
 .bss           0x00000000        0x0 NuttX/nuttx/arch/arm/src/libarch.a(arm_udelay.o)
 .text          0x00000000        0x0 NuttX/nuttx/arch/arm/src/libarch.a(arm_cache.o)
 .data          0x00000000        0x0 NuttX/nuttx/arch/arm/src/libarch.a(arm_cache.o)
 .bss           0x00000000        0x0 NuttX/nuttx/arch/arm/src/libarch.a(arm_cache.o)
 .text.up_disable_icache
                0x00000000       0x28 NuttX/nuttx/arch/arm/src/libarch.a(arm_cache.o)
 .text.up_invalidate_icache_all
                0x00000000       0x1c NuttX/nuttx/arch/arm/src/libarch.a(arm_cache.o)
 .text.up_coherent_dcache
                0x00000000        0x8 NuttX/nuttx/arch/arm/src/libarch.a(arm_cache.o)
 .text          0x00000000        0x0 NuttX/nuttx/arch/arm/src/libarch.a(arm_doirq.o)
 .data          0x00000000        0x0 NuttX/nuttx/arch/arm/src/libarch.a(arm_doirq.o)
 .bss           0x00000000        0x0 NuttX/nuttx/arch/arm/src/libarch.a(arm_doirq.o)
 .text          0x00000000        0x0 NuttX/nuttx/arch/arm/src/libarch.a(arm_fpuconfig.o)
 .data          0x00000000        0x0 NuttX/nuttx/arch/arm/src/libarch.a(arm_fpuconfig.o)
 .bss           0x00000000        0x0 NuttX/nuttx/arch/arm/src/libarch.a(arm_fpuconfig.o)
 .text          0x00000000        0x0 NuttX/nuttx/arch/arm/src/libarch.a(stm32_irq.o)
 .data          0x00000000        0x0 NuttX/nuttx/arch/arm/src/libarch.a(stm32_irq.o)
 .bss           0x00000000        0x0 NuttX/nuttx/arch/arm/src/libarch.a(stm32_irq.o)
 .text          0x00000000        0x0 NuttX/nuttx/arch/arm/src/libarch.a(arm_hardfault.o)
 .data          0x00000000        0x0 NuttX/nuttx/arch/arm/src/libarch.a(arm_hardfault.o)
 .bss           0x00000000        0x0 NuttX/nuttx/arch/arm/src/libarch.a(arm_hardfault.o)
 .text          0x00000000        0x0 NuttX/nuttx/arch/arm/src/libarch.a(arm_svcall.o)
 .data          0x00000000        0x0 NuttX/nuttx/arch/arm/src/libarch.a(arm_svcall.o)
 .bss           0x00000000        0x0 NuttX/nuttx/arch/arm/src/libarch.a(arm_svcall.o)
 .text          0x00000000        0x0 NuttX/nuttx/libs/libc/libc.a(arch_memcpy.o)
 .data          0x00000000        0x0 NuttX/nuttx/libs/libc/libc.a(arch_memcpy.o)
 .bss           0x00000000        0x0 NuttX/nuttx/libs/libc/libc.a(arch_memcpy.o)
 .text          0x00000000        0x0 NuttX/nuttx/libs/libc/libc.a(lib_assert.o)
 .data          0x00000000        0x0 NuttX/nuttx/libs/libc/libc.a(lib_assert.o)
 .bss           0x00000000        0x0 NuttX/nuttx/libs/libc/libc.a(lib_assert.o)
 .text          0x00000000        0x0 NuttX/nuttx/libs/libc/libc.a(lib_abort.o)
 .data          0x00000000        0x0 NuttX/nuttx/libs/libc/libc.a(lib_abort.o)
 .bss           0x00000000        0x0 NuttX/nuttx/libs/libc/libc.a(lib_abort.o)
 .text          0x00000000        0x0 NuttX/nuttx/libs/libc/libc.a(lib_exit.o)
 .data          0x00000000        0x0 NuttX/nuttx/libs/libc/libc.a(lib_exit.o)
 .bss           0x00000000        0x0 NuttX/nuttx/libs/libc/libc.a(lib_exit.o)
 .text._Exit    0x00000000        0x6 NuttX/nuttx/libs/libc/libc.a(lib_exit.o)
 .data.__dso_handle
                0x00000000        0x4 NuttX/nuttx/libs/libc/libc.a(lib_exit.o)
 .text          0x00000000        0x0 NuttX/nuttx/libs/libc/libc.a(lib_memset.o)
 .data          0x00000000        0x0 NuttX/nuttx/libs/libc/libc.a(lib_memset.o)
 .bss           0x00000000        0x0 NuttX/nuttx/libs/libc/libc.a(lib_memset.o)
 .text          0x00000000        0x0 boards/hkust/nxt-dual/src/libdrivers_board.a(bootloader_main.c.obj)
 .data          0x00000000        0x0 boards/hkust/nxt-dual/src/libdrivers_board.a(bootloader_main.c.obj)
 .bss           0x00000000        0x0 boards/hkust/nxt-dual/src/libdrivers_board.a(bootloader_main.c.obj)
 .text          0x00000000        0x0 boards/hkust/nxt-dual/src/libdrivers_board.a(usb.c.obj)
 .data          0x00000000        0x0 boards/hkust/nxt-dual/src/libdrivers_board.a(usb.c.obj)
 .bss           0x00000000        0x0 boards/hkust/nxt-dual/src/libdrivers_board.a(usb.c.obj)
 .text          0x00000000        0x0 NuttX/nuttx/sched/libsched.a(nx_start.o)
 .data          0x00000000        0x0 NuttX/nuttx/sched/libsched.a(nx_start.o)
 .bss           0x00000000        0x0 NuttX/nuttx/sched/libsched.a(nx_start.o)
 .text          0x00000000        0x0 NuttX/nuttx/sched/libsched.a(nx_bringup.o)
 .data          0x00000000        0x0 NuttX/nuttx/sched/libsched.a(nx_bringup.o)
 .bss           0x00000000        0x0 NuttX/nuttx/sched/libsched.a(nx_bringup.o)
 .text          0x00000000        0x0 NuttX/nuttx/sched/libsched.a(irq_attach.o)
 .data          0x00000000        0x0 NuttX/nuttx/sched/libsched.a(irq_attach.o)
 .bss           0x00000000        0x0 NuttX/nuttx/sched/libsched.a(irq_attach.o)
 .text          0x00000000        0x0 NuttX/nuttx/sched/libsched.a(irq_dispatch.o)
 .data          0x00000000        0x0 NuttX/nuttx/sched/libsched.a(irq_dispatch.o)
 .bss           0x00000000        0x0 NuttX/nuttx/sched/libsched.a(irq_dispatch.o)
 .text          0x00000000        0x0 NuttX/nuttx/sched/libsched.a(irq_unexpectedisr.o)
 .data          0x00000000        0x0 NuttX/nuttx/sched/libsched.a(irq_unexpectedisr.o)
 .bss           0x00000000        0x0 NuttX/nuttx/sched/libsched.a(irq_unexpectedisr.o)
 .text          0x00000000        0x0 NuttX/nuttx/sched/libsched.a(sched_lock.o)
 .data          0x00000000        0x0 NuttX/nuttx/sched/libsched.a(sched_lock.o)
 .bss           0x00000000        0x0 NuttX/nuttx/sched/libsched.a(sched_lock.o)
 .text          0x00000000        0x0 NuttX/nuttx/sched/libsched.a(sched_unlock.o)
 .data          0x00000000        0x0 NuttX/nuttx/sched/libsched.a(sched_unlock.o)
 .bss           0x00000000        0x0 NuttX/nuttx/sched/libsched.a(sched_unlock.o)
 .text          0x00000000        0x0 NuttX/nuttx/sched/libsched.a(task_create.o)
 .data          0x00000000        0x0 NuttX/nuttx/sched/libsched.a(task_create.o)
 .bss           0x00000000        0x0 NuttX/nuttx/sched/libsched.a(task_create.o)
 .text.task_create
                0x00000000       0x20 NuttX/nuttx/sched/libsched.a(task_create.o)
 .text          0x00000000        0x0 NuttX/nuttx/sched/libsched.a(task_init.o)
 .data          0x00000000        0x0 NuttX/nuttx/sched/libsched.a(task_init.o)
 .bss           0x00000000        0x0 NuttX/nuttx/sched/libsched.a(task_init.o)
 .text.nxtask_uninit
                0x00000000       0x20 NuttX/nuttx/sched/libsched.a(task_init.o)
 .text          0x00000000        0x0 NuttX/nuttx/sched/libsched.a(task_setup.o)
 .data          0x00000000        0x0 NuttX/nuttx/sched/libsched.a(task_setup.o)
 .bss           0x00000000        0x0 NuttX/nuttx/sched/libsched.a(task_setup.o)
 .text          0x00000000        0x0 NuttX/nuttx/sched/libsched.a(task_activate.o)
 .data          0x00000000        0x0 NuttX/nuttx/sched/libsched.a(task_activate.o)
 .bss           0x00000000        0x0 NuttX/nuttx/sched/libsched.a(task_activate.o)
 .text          0x00000000        0x0 NuttX/nuttx/sched/libsched.a(task_start.o)
 .data          0x00000000        0x0 NuttX/nuttx/sched/libsched.a(task_start.o)
 .bss           0x00000000        0x0 NuttX/nuttx/sched/libsched.a(task_start.o)
 .text          0x00000000        0x0 NuttX/nuttx/sched/libsched.a(exit.o)
 .data          0x00000000        0x0 NuttX/nuttx/sched/libsched.a(exit.o)
 .bss           0x00000000        0x0 NuttX/nuttx/sched/libsched.a(exit.o)
 .text          0x00000000        0x0 NuttX/nuttx/sched/libsched.a(tls_initinfo.o)
 .data          0x00000000        0x0 NuttX/nuttx/sched/libsched.a(tls_initinfo.o)
 .bss           0x00000000        0x0 NuttX/nuttx/sched/libsched.a(tls_initinfo.o)
 .text          0x00000000        0x0 NuttX/nuttx/sched/libsched.a(group_create.o)
 .data          0x00000000        0x0 NuttX/nuttx/sched/libsched.a(group_create.o)
 .bss           0x00000000        0x0 NuttX/nuttx/sched/libsched.a(group_create.o)
 .text          0x00000000        0x0 NuttX/nuttx/sched/libsched.a(group_leave.o)
 .data          0x00000000        0x0 NuttX/nuttx/sched/libsched.a(group_leave.o)
 .bss           0x00000000        0x0 NuttX/nuttx/sched/libsched.a(group_leave.o)
 .text          0x00000000        0x0 NuttX/nuttx/sched/libsched.a(group_setupidlefiles.o)
 .data          0x00000000        0x0 NuttX/nuttx/sched/libsched.a(group_setupidlefiles.o)
 .bss           0x00000000        0x0 NuttX/nuttx/sched/libsched.a(group_setupidlefiles.o)
 .text          0x00000000        0x0 NuttX/nuttx/sched/libsched.a(group_setuptaskfiles.o)
 .data          0x00000000        0x0 NuttX/nuttx/sched/libsched.a(group_setuptaskfiles.o)
 .bss           0x00000000        0x0 NuttX/nuttx/sched/libsched.a(group_setuptaskfiles.o)
 .text          0x00000000        0x0 NuttX/nuttx/sched/libsched.a(irq_initialize.o)
 .data          0x00000000        0x0 NuttX/nuttx/sched/libsched.a(irq_initialize.o)
 .bss           0x00000000        0x0 NuttX/nuttx/sched/libsched.a(irq_initialize.o)
 .text          0x00000000        0x0 NuttX/nuttx/sched/libsched.a(sched_releasetcb.o)
 .data          0x00000000        0x0 NuttX/nuttx/sched/libsched.a(sched_releasetcb.o)
 .bss           0x00000000        0x0 NuttX/nuttx/sched/libsched.a(sched_releasetcb.o)
 .text          0x00000000        0x0 NuttX/nuttx/sched/libsched.a(sig_procmask.o)
 .data          0x00000000        0x0 NuttX/nuttx/sched/libsched.a(sig_procmask.o)
 .bss           0x00000000        0x0 NuttX/nuttx/sched/libsched.a(sig_procmask.o)
 .text.sigprocmask
                0x00000000       0x1a NuttX/nuttx/sched/libsched.a(sig_procmask.o)
 .text          0x00000000        0x0 NuttX/nuttx/sched/libsched.a(sig_unmaskpendingsignal.o)
 .data          0x00000000        0x0 NuttX/nuttx/sched/libsched.a(sig_unmaskpendingsignal.o)
 .bss           0x00000000        0x0 NuttX/nuttx/sched/libsched.a(sig_unmaskpendingsignal.o)
 .text          0x00000000        0x0 NuttX/nuttx/sched/libsched.a(sig_removependingsignal.o)
 .data          0x00000000        0x0 NuttX/nuttx/sched/libsched.a(sig_removependingsignal.o)
 .bss           0x00000000        0x0 NuttX/nuttx/sched/libsched.a(sig_removependingsignal.o)
 .text          0x00000000        0x0 NuttX/nuttx/sched/libsched.a(sig_releasependingsignal.o)
 .data          0x00000000        0x0 NuttX/nuttx/sched/libsched.a(sig_releasependingsignal.o)
 .bss           0x00000000        0x0 NuttX/nuttx/sched/libsched.a(sig_releasependingsignal.o)
 .text          0x00000000        0x0 NuttX/nuttx/sched/libsched.a(sig_lowest.o)
 .data          0x00000000        0x0 NuttX/nuttx/sched/libsched.a(sig_lowest.o)
 .bss           0x00000000        0x0 NuttX/nuttx/sched/libsched.a(sig_lowest.o)
 .text          0x00000000        0x0 NuttX/nuttx/sched/libsched.a(sig_cleanup.o)
 .data          0x00000000        0x0 NuttX/nuttx/sched/libsched.a(sig_cleanup.o)
 .bss           0x00000000        0x0 NuttX/nuttx/sched/libsched.a(sig_cleanup.o)
 .text          0x00000000        0x0 NuttX/nuttx/sched/libsched.a(sig_dispatch.o)
 .data          0x00000000        0x0 NuttX/nuttx/sched/libsched.a(sig_dispatch.o)
 .bss           0x00000000        0x0 NuttX/nuttx/sched/libsched.a(sig_dispatch.o)
 .text          0x00000000        0x0 NuttX/nuttx/sched/libsched.a(sig_deliver.o)
 .data          0x00000000        0x0 NuttX/nuttx/sched/libsched.a(sig_deliver.o)
 .bss           0x00000000        0x0 NuttX/nuttx/sched/libsched.a(sig_deliver.o)
 .text          0x00000000        0x0 NuttX/nuttx/sched/libsched.a(sig_default.o)
 .data          0x00000000        0x0 NuttX/nuttx/sched/libsched.a(sig_default.o)
 .bss           0x00000000        0x0 NuttX/nuttx/sched/libsched.a(sig_default.o)
 .text          0x00000000        0x0 NuttX/nuttx/sched/libsched.a(task_exithook.o)
 .data          0x00000000        0x0 NuttX/nuttx/sched/libsched.a(task_exithook.o)
 .bss           0x00000000        0x0 NuttX/nuttx/sched/libsched.a(task_exithook.o)
 .text          0x00000000        0x0 NuttX/nuttx/sched/libsched.a(task_recover.o)
 .data          0x00000000        0x0 NuttX/nuttx/sched/libsched.a(task_recover.o)
 .bss           0x00000000        0x0 NuttX/nuttx/sched/libsched.a(task_recover.o)
 .text          0x00000000        0x0 NuttX/nuttx/sched/libsched.a(task_initinfo.o)
 .data          0x00000000        0x0 NuttX/nuttx/sched/libsched.a(task_initinfo.o)
 .bss           0x00000000        0x0 NuttX/nuttx/sched/libsched.a(task_initinfo.o)
 .text          0x00000000        0x0 NuttX/nuttx/sched/libsched.a(task_uninitinfo.o)
 .data          0x00000000        0x0 NuttX/nuttx/sched/libsched.a(task_uninitinfo.o)
 .bss           0x00000000        0x0 NuttX/nuttx/sched/libsched.a(task_uninitinfo.o)
 .text          0x00000000        0x0 NuttX/nuttx/sched/libsched.a(wd_recover.o)
 .data          0x00000000        0x0 NuttX/nuttx/sched/libsched.a(wd_recover.o)
 .bss           0x00000000        0x0 NuttX/nuttx/sched/libsched.a(wd_recover.o)
 .text          0x00000000        0x0 NuttX/nuttx/sched/libsched.a(group_setupstreams.o)
 .data          0x00000000        0x0 NuttX/nuttx/sched/libsched.a(group_setupstreams.o)
 .bss           0x00000000        0x0 NuttX/nuttx/sched/libsched.a(group_setupstreams.o)
 .text          0x00000000        0x0 NuttX/nuttx/sched/libsched.a(sched_gettcb.o)
 .data          0x00000000        0x0 NuttX/nuttx/sched/libsched.a(sched_gettcb.o)
 .bss           0x00000000        0x0 NuttX/nuttx/sched/libsched.a(sched_gettcb.o)
 .text          0x00000000        0x0 NuttX/nuttx/sched/libsched.a(sched_suspend.o)
 .data          0x00000000        0x0 NuttX/nuttx/sched/libsched.a(sched_suspend.o)
 .bss           0x00000000        0x0 NuttX/nuttx/sched/libsched.a(sched_suspend.o)
 .text          0x00000000        0x0 NuttX/nuttx/sched/libsched.a(sched_continue.o)
 .data          0x00000000        0x0 NuttX/nuttx/sched/libsched.a(sched_continue.o)
 .bss           0x00000000        0x0 NuttX/nuttx/sched/libsched.a(sched_continue.o)
 .text          0x00000000        0x0 NuttX/nuttx/sched/libsched.a(sem_destroy.o)
 .data          0x00000000        0x0 NuttX/nuttx/sched/libsched.a(sem_destroy.o)
 .bss           0x00000000        0x0 NuttX/nuttx/sched/libsched.a(sem_destroy.o)
 .text          0x00000000        0x0 NuttX/nuttx/sched/libsched.a(sem_recover.o)
 .data          0x00000000        0x0 NuttX/nuttx/sched/libsched.a(sem_recover.o)
 .bss           0x00000000        0x0 NuttX/nuttx/sched/libsched.a(sem_recover.o)
 .text          0x00000000        0x0 NuttX/nuttx/sched/libsched.a(sem_waitirq.o)
 .data          0x00000000        0x0 NuttX/nuttx/sched/libsched.a(sem_waitirq.o)
 .bss           0x00000000        0x0 NuttX/nuttx/sched/libsched.a(sem_waitirq.o)
 .text          0x00000000        0x0 NuttX/nuttx/sched/libsched.a(sig_initialize.o)
 .data          0x00000000        0x0 NuttX/nuttx/sched/libsched.a(sig_initialize.o)
 .bss           0x00000000        0x0 NuttX/nuttx/sched/libsched.a(sig_initialize.o)
 .text          0x00000000        0x0 NuttX/nuttx/sched/libsched.a(sig_action.o)
 .data          0x00000000        0x0 NuttX/nuttx/sched/libsched.a(sig_action.o)
 .bss           0x00000000        0x0 NuttX/nuttx/sched/libsched.a(sig_action.o)
 .text.sigaction
                0x00000000       0x1e NuttX/nuttx/sched/libsched.a(sig_action.o)
 .text          0x00000000        0x0 NuttX/nuttx/sched/libsched.a(sig_pending.o)
 .data          0x00000000        0x0 NuttX/nuttx/sched/libsched.a(sig_pending.o)
 .bss           0x00000000        0x0 NuttX/nuttx/sched/libsched.a(sig_pending.o)
 .text.sigpending
                0x00000000       0x20 NuttX/nuttx/sched/libsched.a(sig_pending.o)
 .text          0x00000000        0x0 NuttX/nuttx/sched/libsched.a(sig_findaction.o)
 .data          0x00000000        0x0 NuttX/nuttx/sched/libsched.a(sig_findaction.o)
 .bss           0x00000000        0x0 NuttX/nuttx/sched/libsched.a(sig_findaction.o)
 .text          0x00000000        0x0 NuttX/nuttx/sched/libsched.a(sig_allocpendingsigaction.o)
 .data          0x00000000        0x0 NuttX/nuttx/sched/libsched.a(sig_allocpendingsigaction.o)
 .bss           0x00000000        0x0 NuttX/nuttx/sched/libsched.a(sig_allocpendingsigaction.o)
 .text          0x00000000        0x0 NuttX/nuttx/sched/libsched.a(sig_releasependingsigaction.o)
 .data          0x00000000        0x0 NuttX/nuttx/sched/libsched.a(sig_releasependingsigaction.o)
 .bss           0x00000000        0x0 NuttX/nuttx/sched/libsched.a(sig_releasependingsigaction.o)
 .text          0x00000000        0x0 NuttX/nuttx/sched/libsched.a(wd_cancel.o)
 .data          0x00000000        0x0 NuttX/nuttx/sched/libsched.a(wd_cancel.o)
 .bss           0x00000000        0x0 NuttX/nuttx/sched/libsched.a(wd_cancel.o)
 .text          0x00000000        0x0 NuttX/nuttx/sched/libsched.a(sched_addblocked.o)
 .data          0x00000000        0x0 NuttX/nuttx/sched/libsched.a(sched_addblocked.o)
 .bss           0x00000000        0x0 NuttX/nuttx/sched/libsched.a(sched_addblocked.o)
 .text          0x00000000        0x0 NuttX/nuttx/sched/libsched.a(sched_removeblocked.o)
 .data          0x00000000        0x0 NuttX/nuttx/sched/libsched.a(sched_removeblocked.o)
 .bss           0x00000000        0x0 NuttX/nuttx/sched/libsched.a(sched_removeblocked.o)
 .text          0x00000000        0x0 NuttX/nuttx/sched/libsched.a(wd_initialize.o)
 .data          0x00000000        0x0 NuttX/nuttx/sched/libsched.a(wd_initialize.o)
 .bss           0x00000000        0x0 NuttX/nuttx/sched/libsched.a(wd_initialize.o)
 .text          0x00000000        0x0 NuttX/nuttx/sched/libsched.a(sched_addprioritized.o)
 .data          0x00000000        0x0 NuttX/nuttx/sched/libsched.a(sched_addprioritized.o)
 .bss           0x00000000        0x0 NuttX/nuttx/sched/libsched.a(sched_addprioritized.o)
 .text          0x00000000        0x0 NuttX/nuttx/binfmt/libbinfmt.a(binfmt_initialize.o)
 .data          0x00000000        0x0 NuttX/nuttx/binfmt/libbinfmt.a(binfmt_initialize.o)
 .bss           0x00000000        0x0 NuttX/nuttx/binfmt/libbinfmt.a(binfmt_initialize.o)
 .text          0x00000000        0x0 NuttX/apps/libapps.a(cdcacm_main.c.Users.carbs.Desktop.PX4-Autopilot.platforms.nuttx.NuttX.apps.system.cdcacm.o)
 .data          0x00000000        0x0 NuttX/apps/libapps.a(cdcacm_main.c.Users.carbs.Desktop.PX4-Autopilot.platforms.nuttx.NuttX.apps.system.cdcacm.o)
 .bss           0x00000000        0x0 NuttX/apps/libapps.a(cdcacm_main.c.Users.carbs.Desktop.PX4-Autopilot.platforms.nuttx.NuttX.apps.system.cdcacm.o)
 .rodata.serdis_main.str1.1
                0x00000000       0x34 NuttX/apps/libapps.a(cdcacm_main.c.Users.carbs.Desktop.PX4-Autopilot.platforms.nuttx.NuttX.apps.system.cdcacm.o)
 .text.serdis_main
                0x00000000       0x48 NuttX/apps/libapps.a(cdcacm_main.c.Users.carbs.Desktop.PX4-Autopilot.platforms.nuttx.NuttX.apps.system.cdcacm.o)
 .text          0x00000000        0x0 NuttX/nuttx/arch/arm/src/libarch.a(stm32_allocateheap.o)
 .data          0x00000000        0x0 NuttX/nuttx/arch/arm/src/libarch.a(stm32_allocateheap.o)
 .bss           0x00000000        0x0 NuttX/nuttx/arch/arm/src/libarch.a(stm32_allocateheap.o)
 .text          0x00000000        0x0 NuttX/nuttx/arch/arm/src/libarch.a(stm32_gpio.o)
 .data          0x00000000        0x0 NuttX/nuttx/arch/arm/src/libarch.a(stm32_gpio.o)
 .bss           0x00000000        0x0 NuttX/nuttx/arch/arm/src/libarch.a(stm32_gpio.o)
 .text.stm32_gpioinit
                0x00000000        0x2 NuttX/nuttx/arch/arm/src/libarch.a(stm32_gpio.o)
 .text          0x00000000        0x0 NuttX/nuttx/arch/arm/src/libarch.a(arm_assert.o)
 .data          0x00000000        0x0 NuttX/nuttx/arch/arm/src/libarch.a(arm_assert.o)
 .bss           0x00000000        0x0 NuttX/nuttx/arch/arm/src/libarch.a(arm_assert.o)
 .text          0x00000000        0x0 NuttX/nuttx/arch/arm/src/libarch.a(arm_blocktask.o)
 .data          0x00000000        0x0 NuttX/nuttx/arch/arm/src/libarch.a(arm_blocktask.o)
 .bss           0x00000000        0x0 NuttX/nuttx/arch/arm/src/libarch.a(arm_blocktask.o)
 .text          0x00000000        0x0 NuttX/nuttx/arch/arm/src/libarch.a(arm_createstack.o)
 .data          0x00000000        0x0 NuttX/nuttx/arch/arm/src/libarch.a(arm_createstack.o)
 .bss           0x00000000        0x0 NuttX/nuttx/arch/arm/src/libarch.a(arm_createstack.o)
 .text          0x00000000        0x0 NuttX/nuttx/arch/arm/src/libarch.a(arm_exit.o)
 .data          0x00000000        0x0 NuttX/nuttx/arch/arm/src/libarch.a(arm_exit.o)
 .bss           0x00000000        0x0 NuttX/nuttx/arch/arm/src/libarch.a(arm_exit.o)
 .text          0x00000000        0x0 NuttX/nuttx/arch/arm/src/libarch.a(arm_fullcontextrestore.o)
 .data          0x00000000        0x0 NuttX/nuttx/arch/arm/src/libarch.a(arm_fullcontextrestore.o)
 .bss           0x00000000        0x0 NuttX/nuttx/arch/arm/src/libarch.a(arm_fullcontextrestore.o)
 .text          0x00000000        0x0 NuttX/nuttx/arch/arm/src/libarch.a(arm_initialize.o)
 .data          0x00000000        0x0 NuttX/nuttx/arch/arm/src/libarch.a(arm_initialize.o)
 .bss           0x00000000        0x0 NuttX/nuttx/arch/arm/src/libarch.a(arm_initialize.o)
 .text          0x00000000        0x0 NuttX/nuttx/arch/arm/src/libarch.a(arm_releasepending.o)
 .data          0x00000000        0x0 NuttX/nuttx/arch/arm/src/libarch.a(arm_releasepending.o)
 .bss           0x00000000        0x0 NuttX/nuttx/arch/arm/src/libarch.a(arm_releasepending.o)
 .text          0x00000000        0x0 NuttX/nuttx/arch/arm/src/libarch.a(arm_releasestack.o)
 .data          0x00000000        0x0 NuttX/nuttx/arch/arm/src/libarch.a(arm_releasestack.o)
 .bss           0x00000000        0x0 NuttX/nuttx/arch/arm/src/libarch.a(arm_releasestack.o)
 .text          0x00000000        0x0 NuttX/nuttx/arch/arm/src/libarch.a(arm_stackframe.o)
 .data          0x00000000        0x0 NuttX/nuttx/arch/arm/src/libarch.a(arm_stackframe.o)
 .bss           0x00000000        0x0 NuttX/nuttx/arch/arm/src/libarch.a(arm_stackframe.o)
 .text          0x00000000        0x0 NuttX/nuttx/arch/arm/src/libarch.a(arm_switchcontext.o)
 .data          0x00000000        0x0 NuttX/nuttx/arch/arm/src/libarch.a(arm_switchcontext.o)
 .bss           0x00000000        0x0 NuttX/nuttx/arch/arm/src/libarch.a(arm_switchcontext.o)
 .text          0x00000000        0x0 NuttX/nuttx/arch/arm/src/libarch.a(arm_unblocktask.o)
 .data          0x00000000        0x0 NuttX/nuttx/arch/arm/src/libarch.a(arm_unblocktask.o)
 .bss           0x00000000        0x0 NuttX/nuttx/arch/arm/src/libarch.a(arm_unblocktask.o)
 .text          0x00000000        0x0 NuttX/nuttx/arch/arm/src/libarch.a(arm_usestack.o)
 .data          0x00000000        0x0 NuttX/nuttx/arch/arm/src/libarch.a(arm_usestack.o)
 .bss           0x00000000        0x0 NuttX/nuttx/arch/arm/src/libarch.a(arm_usestack.o)
 .text          0x00000000        0x0 NuttX/nuttx/arch/arm/src/libarch.a(arm_checkstack.o)
 .data          0x00000000        0x0 NuttX/nuttx/arch/arm/src/libarch.a(arm_checkstack.o)
 .bss           0x00000000        0x0 NuttX/nuttx/arch/arm/src/libarch.a(arm_checkstack.o)
 .text.arm_stack_check
                0x00000000       0x30 NuttX/nuttx/arch/arm/src/libarch.a(arm_checkstack.o)
 .text.up_check_tcbstack
                0x00000000        0x8 NuttX/nuttx/arch/arm/src/libarch.a(arm_checkstack.o)
 .text.up_check_tcbstack_remain
                0x00000000        0xc NuttX/nuttx/arch/arm/src/libarch.a(arm_checkstack.o)
 .text.up_check_stack
                0x00000000       0x20 NuttX/nuttx/arch/arm/src/libarch.a(arm_checkstack.o)
 .text.up_check_stack_remain
                0x00000000       0x20 NuttX/nuttx/arch/arm/src/libarch.a(arm_checkstack.o)
 .text.up_check_intstack
                0x00000000       0x30 NuttX/nuttx/arch/arm/src/libarch.a(arm_checkstack.o)
 .text.up_check_intstack_remain
                0x00000000        0xc NuttX/nuttx/arch/arm/src/libarch.a(arm_checkstack.o)
 .text          0x00000000        0x0 NuttX/nuttx/arch/arm/src/libarch.a(arm_idle.o)
 .data          0x00000000        0x0 NuttX/nuttx/arch/arm/src/libarch.a(arm_idle.o)
 .bss           0x00000000        0x0 NuttX/nuttx/arch/arm/src/libarch.a(arm_idle.o)
 .text          0x00000000        0x0 NuttX/nuttx/arch/arm/src/libarch.a(arm_initialstate.o)
 .data          0x00000000        0x0 NuttX/nuttx/arch/arm/src/libarch.a(arm_initialstate.o)
 .bss           0x00000000        0x0 NuttX/nuttx/arch/arm/src/libarch.a(arm_initialstate.o)
 .text          0x00000000        0x0 NuttX/nuttx/arch/arm/src/libarch.a(arm_schedulesigaction.o)
 .data          0x00000000        0x0 NuttX/nuttx/arch/arm/src/libarch.a(arm_schedulesigaction.o)
 .bss           0x00000000        0x0 NuttX/nuttx/arch/arm/src/libarch.a(arm_schedulesigaction.o)
 .text          0x00000000        0x0 NuttX/nuttx/arch/arm/src/libarch.a(arm_sigdeliver.o)
 .data          0x00000000        0x0 NuttX/nuttx/arch/arm/src/libarch.a(arm_sigdeliver.o)
 .bss           0x00000000        0x0 NuttX/nuttx/arch/arm/src/libarch.a(arm_sigdeliver.o)
 .text          0x00000000        0x0 NuttX/nuttx/arch/arm/src/libarch.a(stm32_serial.o)
 .data          0x00000000        0x0 NuttX/nuttx/arch/arm/src/libarch.a(stm32_serial.o)
 .bss           0x00000000        0x0 NuttX/nuttx/arch/arm/src/libarch.a(stm32_serial.o)
 .text.stm32_serial_get_uart
                0x00000000       0x24 NuttX/nuttx/arch/arm/src/libarch.a(stm32_serial.o)
 .text          0x00000000        0x0 NuttX/nuttx/arch/arm/src/libarch.a(stm32_otgdev.o)
 .data          0x00000000        0x0 NuttX/nuttx/arch/arm/src/libarch.a(stm32_otgdev.o)
 .bss           0x00000000        0x0 NuttX/nuttx/arch/arm/src/libarch.a(stm32_otgdev.o)
 .text          0x00000000        0x0 NuttX/nuttx/arch/arm/src/libarch.a(arm_mdelay.o)
 .data          0x00000000        0x0 NuttX/nuttx/arch/arm/src/libarch.a(arm_mdelay.o)
 .bss           0x00000000        0x0 NuttX/nuttx/arch/arm/src/libarch.a(arm_mdelay.o)
 .text          0x00000000        0x0 NuttX/nuttx/mm/libmm.a(umm_initialize.o)
 .data          0x00000000        0x0 NuttX/nuttx/mm/libmm.a(umm_initialize.o)
 .bss           0x00000000        0x0 NuttX/nuttx/mm/libmm.a(umm_initialize.o)
 .text          0x00000000        0x0 NuttX/nuttx/mm/libmm.a(umm_free.o)
 .data          0x00000000        0x0 NuttX/nuttx/mm/libmm.a(umm_free.o)
 .bss           0x00000000        0x0 NuttX/nuttx/mm/libmm.a(umm_free.o)
 .text          0x00000000        0x0 NuttX/nuttx/mm/libmm.a(umm_malloc.o)
 .data          0x00000000        0x0 NuttX/nuttx/mm/libmm.a(umm_malloc.o)
 .bss           0x00000000        0x0 NuttX/nuttx/mm/libmm.a(umm_malloc.o)
 .text          0x00000000        0x0 NuttX/nuttx/mm/libmm.a(umm_zalloc.o)
 .data          0x00000000        0x0 NuttX/nuttx/mm/libmm.a(umm_zalloc.o)
 .bss           0x00000000        0x0 NuttX/nuttx/mm/libmm.a(umm_zalloc.o)
 .text          0x00000000        0x0 NuttX/nuttx/mm/libmm.a(mm_initialize.o)
 .data          0x00000000        0x0 NuttX/nuttx/mm/libmm.a(mm_initialize.o)
 .bss           0x00000000        0x0 NuttX/nuttx/mm/libmm.a(mm_initialize.o)
 .text.mm_uninitialize
                0x00000000        0x4 NuttX/nuttx/mm/libmm.a(mm_initialize.o)
 .text          0x00000000        0x0 NuttX/nuttx/mm/libmm.a(mm_sem.o)
 .data          0x00000000        0x0 NuttX/nuttx/mm/libmm.a(mm_sem.o)
 .bss           0x00000000        0x0 NuttX/nuttx/mm/libmm.a(mm_sem.o)
 .text.mm_semuninitialize
                0x00000000        0x4 NuttX/nuttx/mm/libmm.a(mm_sem.o)
 .text          0x00000000        0x0 NuttX/nuttx/mm/libmm.a(mm_addfreechunk.o)
 .data          0x00000000        0x0 NuttX/nuttx/mm/libmm.a(mm_addfreechunk.o)
 .bss           0x00000000        0x0 NuttX/nuttx/mm/libmm.a(mm_addfreechunk.o)
 .text          0x00000000        0x0 NuttX/nuttx/mm/libmm.a(mm_size2ndx.o)
 .data          0x00000000        0x0 NuttX/nuttx/mm/libmm.a(mm_size2ndx.o)
 .bss           0x00000000        0x0 NuttX/nuttx/mm/libmm.a(mm_size2ndx.o)
 .text          0x00000000        0x0 NuttX/nuttx/mm/libmm.a(mm_free.o)
 .data          0x00000000        0x0 NuttX/nuttx/mm/libmm.a(mm_free.o)
 .bss           0x00000000        0x0 NuttX/nuttx/mm/libmm.a(mm_free.o)
 .text          0x00000000        0x0 NuttX/nuttx/mm/libmm.a(mm_malloc.o)
 .data          0x00000000        0x0 NuttX/nuttx/mm/libmm.a(mm_malloc.o)
 .bss           0x00000000        0x0 NuttX/nuttx/mm/libmm.a(mm_malloc.o)
 .text          0x00000000        0x0 NuttX/nuttx/mm/libmm.a(mm_zalloc.o)
 .data          0x00000000        0x0 NuttX/nuttx/mm/libmm.a(mm_zalloc.o)
 .bss           0x00000000        0x0 NuttX/nuttx/mm/libmm.a(mm_zalloc.o)
 .text          0x00000000        0x0 NuttX/nuttx/mm/libmm.a(umm_globals.o)
 .data          0x00000000        0x0 NuttX/nuttx/mm/libmm.a(umm_globals.o)
 .bss           0x00000000        0x0 NuttX/nuttx/mm/libmm.a(umm_globals.o)
 .text          0x00000000        0x0 NuttX/nuttx/libs/libc/libc.a(lib_errno.o)
 .data          0x00000000        0x0 NuttX/nuttx/libs/libc/libc.a(lib_errno.o)
 .bss           0x00000000        0x0 NuttX/nuttx/libs/libc/libc.a(lib_errno.o)
 .text          0x00000000        0x0 NuttX/nuttx/libs/libc/libc.a(sq_addlast.o)
 .data          0x00000000        0x0 NuttX/nuttx/libs/libc/libc.a(sq_addlast.o)
 .bss           0x00000000        0x0 NuttX/nuttx/libs/libc/libc.a(sq_addlast.o)
 .text          0x00000000        0x0 NuttX/nuttx/libs/libc/libc.a(sq_rem.o)
 .data          0x00000000        0x0 NuttX/nuttx/libs/libc/libc.a(sq_rem.o)
 .bss           0x00000000        0x0 NuttX/nuttx/libs/libc/libc.a(sq_rem.o)
 .text          0x00000000        0x0 NuttX/nuttx/libs/libc/libc.a(sq_remfirst.o)
 .data          0x00000000        0x0 NuttX/nuttx/libs/libc/libc.a(sq_remfirst.o)
 .bss           0x00000000        0x0 NuttX/nuttx/libs/libc/libc.a(sq_remfirst.o)
 .text          0x00000000        0x0 NuttX/nuttx/libs/libc/libc.a(sq_remafter.o)
 .data          0x00000000        0x0 NuttX/nuttx/libs/libc/libc.a(sq_remafter.o)
 .bss           0x00000000        0x0 NuttX/nuttx/libs/libc/libc.a(sq_remafter.o)
 .text          0x00000000        0x0 NuttX/nuttx/libs/libc/libc.a(dq_addlast.o)
 .data          0x00000000        0x0 NuttX/nuttx/libs/libc/libc.a(dq_addlast.o)
 .bss           0x00000000        0x0 NuttX/nuttx/libs/libc/libc.a(dq_addlast.o)
 .text          0x00000000        0x0 NuttX/nuttx/libs/libc/libc.a(dq_addfirst.o)
 .data          0x00000000        0x0 NuttX/nuttx/libs/libc/libc.a(dq_addfirst.o)
 .bss           0x00000000        0x0 NuttX/nuttx/libs/libc/libc.a(dq_addfirst.o)
 .text          0x00000000        0x0 NuttX/nuttx/libs/libc/libc.a(dq_rem.o)
 .data          0x00000000        0x0 NuttX/nuttx/libs/libc/libc.a(dq_rem.o)
 .bss           0x00000000        0x0 NuttX/nuttx/libs/libc/libc.a(dq_rem.o)
 .text          0x00000000        0x0 NuttX/nuttx/libs/libc/libc.a(task_startup.o)
 .data          0x00000000        0x0 NuttX/nuttx/libs/libc/libc.a(task_startup.o)
 .bss           0x00000000        0x0 NuttX/nuttx/libs/libc/libc.a(task_startup.o)
 .text          0x00000000        0x0 NuttX/nuttx/libs/libc/libc.a(sem_init.o)
 .data          0x00000000        0x0 NuttX/nuttx/libs/libc/libc.a(sem_init.o)
 .bss           0x00000000        0x0 NuttX/nuttx/libs/libc/libc.a(sem_init.o)
 .text          0x00000000        0x0 NuttX/nuttx/libs/libc/libc.a(sem_getvalue.o)
 .data          0x00000000        0x0 NuttX/nuttx/libs/libc/libc.a(sem_getvalue.o)
 .bss           0x00000000        0x0 NuttX/nuttx/libs/libc/libc.a(sem_getvalue.o)
 .text          0x00000000        0x0 NuttX/nuttx/libs/libc/libc.a(sig_addset.o)
 .data          0x00000000        0x0 NuttX/nuttx/libs/libc/libc.a(sig_addset.o)
 .bss           0x00000000        0x0 NuttX/nuttx/libs/libc/libc.a(sig_addset.o)
 .text.sigaddset
                0x00000000       0x18 NuttX/nuttx/libs/libc/libc.a(sig_addset.o)
 .text          0x00000000        0x0 NuttX/nuttx/libs/libc/libc.a(sig_delset.o)
 .data          0x00000000        0x0 NuttX/nuttx/libs/libc/libc.a(sig_delset.o)
 .bss           0x00000000        0x0 NuttX/nuttx/libs/libc/libc.a(sig_delset.o)
 .text.sigdelset
                0x00000000       0x18 NuttX/nuttx/libs/libc/libc.a(sig_delset.o)
 .text          0x00000000        0x0 NuttX/nuttx/libs/libc/libc.a(sig_emptyset.o)
 .data          0x00000000        0x0 NuttX/nuttx/libs/libc/libc.a(sig_emptyset.o)
 .bss           0x00000000        0x0 NuttX/nuttx/libs/libc/libc.a(sig_emptyset.o)
 .text          0x00000000        0x0 NuttX/nuttx/libs/libc/libc.a(sig_ismember.o)
 .data          0x00000000        0x0 NuttX/nuttx/libs/libc/libc.a(sig_ismember.o)
 .bss           0x00000000        0x0 NuttX/nuttx/libs/libc/libc.a(sig_ismember.o)
 .text.sigismember
                0x00000000       0x18 NuttX/nuttx/libs/libc/libc.a(sig_ismember.o)
 .text          0x00000000        0x0 NuttX/nuttx/libs/libc/libc.a(lib_printf.o)
 .data          0x00000000        0x0 NuttX/nuttx/libs/libc/libc.a(lib_printf.o)
 .bss           0x00000000        0x0 NuttX/nuttx/libs/libc/libc.a(lib_printf.o)
 .text          0x00000000        0x0 NuttX/nuttx/libs/libc/libc.a(lib_libflushall.o)
 .data          0x00000000        0x0 NuttX/nuttx/libs/libc/libc.a(lib_libflushall.o)
 .bss           0x00000000        0x0 NuttX/nuttx/libs/libc/libc.a(lib_libflushall.o)
 .text          0x00000000        0x0 NuttX/nuttx/libs/libc/libc.a(lib_libfflush.o)
 .data          0x00000000        0x0 NuttX/nuttx/libs/libc/libc.a(lib_libfflush.o)
 .bss           0x00000000        0x0 NuttX/nuttx/libs/libc/libc.a(lib_libfflush.o)
 .text          0x00000000        0x0 NuttX/nuttx/libs/libc/libc.a(lib_vfprintf.o)
 .data          0x00000000        0x0 NuttX/nuttx/libs/libc/libc.a(lib_vfprintf.o)
 .bss           0x00000000        0x0 NuttX/nuttx/libs/libc/libc.a(lib_vfprintf.o)
 .text          0x00000000        0x0 NuttX/nuttx/libs/libc/libc.a(lib_libstream.o)
 .data          0x00000000        0x0 NuttX/nuttx/libs/libc/libc.a(lib_libstream.o)
 .bss           0x00000000        0x0 NuttX/nuttx/libs/libc/libc.a(lib_libstream.o)
 .text          0x00000000        0x0 NuttX/nuttx/libs/libc/libc.a(lib_libfilesem.o)
 .data          0x00000000        0x0 NuttX/nuttx/libs/libc/libc.a(lib_libfilesem.o)
 .bss           0x00000000        0x0 NuttX/nuttx/libs/libc/libc.a(lib_libfilesem.o)
 .text          0x00000000        0x0 NuttX/nuttx/libs/libc/libc.a(lib_stdoutstream.o)
 .data          0x00000000        0x0 NuttX/nuttx/libs/libc/libc.a(lib_stdoutstream.o)
 .bss           0x00000000        0x0 NuttX/nuttx/libs/libc/libc.a(lib_stdoutstream.o)
 .text          0x00000000        0x0 NuttX/nuttx/libs/libc/libc.a(lib_strcpy.o)
 .data          0x00000000        0x0 NuttX/nuttx/libs/libc/libc.a(lib_strcpy.o)
 .bss           0x00000000        0x0 NuttX/nuttx/libs/libc/libc.a(lib_strcpy.o)
 .text          0x00000000        0x0 NuttX/nuttx/libs/libc/libc.a(lib_strlcpy.o)
 .data          0x00000000        0x0 NuttX/nuttx/libs/libc/libc.a(lib_strlcpy.o)
 .bss           0x00000000        0x0 NuttX/nuttx/libs/libc/libc.a(lib_strlcpy.o)
 .text          0x00000000        0x0 NuttX/nuttx/libs/libc/libc.a(lib_strlen.o)
 .data          0x00000000        0x0 NuttX/nuttx/libs/libc/libc.a(lib_strlen.o)
 .bss           0x00000000        0x0 NuttX/nuttx/libs/libc/libc.a(lib_strlen.o)
 .text          0x00000000        0x0 NuttX/nuttx/libs/libc/libc.a(lib_strncpy.o)
 .data          0x00000000        0x0 NuttX/nuttx/libs/libc/libc.a(lib_strncpy.o)
 .bss           0x00000000        0x0 NuttX/nuttx/libs/libc/libc.a(lib_strncpy.o)
 .text          0x00000000        0x0 NuttX/nuttx/libs/libc/libc.a(lib_cfspeed.o)
 .data          0x00000000        0x0 NuttX/nuttx/libs/libc/libc.a(lib_cfspeed.o)
 .bss           0x00000000        0x0 NuttX/nuttx/libs/libc/libc.a(lib_cfspeed.o)
 .text          0x00000000        0x0 NuttX/nuttx/libs/libc/libc.a(tls_getinfo.o)
 .data          0x00000000        0x0 NuttX/nuttx/libs/libc/libc.a(tls_getinfo.o)
 .bss           0x00000000        0x0 NuttX/nuttx/libs/libc/libc.a(tls_getinfo.o)
 .text          0x00000000        0x0 NuttX/nuttx/libs/libc/libc.a(lib_cxx_initialize.o)
 .data          0x00000000        0x0 NuttX/nuttx/libs/libc/libc.a(lib_cxx_initialize.o)
 .bss           0x00000000        0x0 NuttX/nuttx/libs/libc/libc.a(lib_cxx_initialize.o)
 .text          0x00000000        0x0 NuttX/nuttx/libs/libc/libc.a(lib_libvsprintf.o)
 .data          0x00000000        0x0 NuttX/nuttx/libs/libc/libc.a(lib_libvsprintf.o)
 .bss           0x00000000        0x0 NuttX/nuttx/libs/libc/libc.a(lib_libvsprintf.o)
 .text          0x00000000        0x0 NuttX/nuttx/libs/libc/libc.a(lib_ultoa_invert.o)
 .data          0x00000000        0x0 NuttX/nuttx/libs/libc/libc.a(lib_ultoa_invert.o)
 .bss           0x00000000        0x0 NuttX/nuttx/libs/libc/libc.a(lib_ultoa_invert.o)
 .text          0x00000000        0x0 NuttX/nuttx/libs/libc/libc.a(lib_dtoa_engine.o)
 .data          0x00000000        0x0 NuttX/nuttx/libs/libc/libc.a(lib_dtoa_engine.o)
 .bss           0x00000000        0x0 NuttX/nuttx/libs/libc/libc.a(lib_dtoa_engine.o)
 .text          0x00000000        0x0 NuttX/nuttx/libs/libc/libc.a(lib_dtoa_data.o)
 .data          0x00000000        0x0 NuttX/nuttx/libs/libc/libc.a(lib_dtoa_data.o)
 .bss           0x00000000        0x0 NuttX/nuttx/libs/libc/libc.a(lib_dtoa_data.o)
 .text          0x00000000        0x0 NuttX/nuttx/libs/libc/libc.a(lib_fputc.o)
 .data          0x00000000        0x0 NuttX/nuttx/libs/libc/libc.a(lib_fputc.o)
 .bss           0x00000000        0x0 NuttX/nuttx/libs/libc/libc.a(lib_fputc.o)
 .text          0x00000000        0x0 NuttX/nuttx/libs/libc/libc.a(lib_libnoflush.o)
 .data          0x00000000        0x0 NuttX/nuttx/libs/libc/libc.a(lib_libnoflush.o)
 .bss           0x00000000        0x0 NuttX/nuttx/libs/libc/libc.a(lib_libnoflush.o)
 .text          0x00000000        0x0 NuttX/nuttx/libs/libc/libc.a(lib_strnlen.o)
 .data          0x00000000        0x0 NuttX/nuttx/libs/libc/libc.a(lib_strnlen.o)
 .bss           0x00000000        0x0 NuttX/nuttx/libs/libc/libc.a(lib_strnlen.o)
 .text          0x00000000        0x0 NuttX/nuttx/libs/libc/libc.a(lib_libfwrite.o)
 .data          0x00000000        0x0 NuttX/nuttx/libs/libc/libc.a(lib_libfwrite.o)
 .bss           0x00000000        0x0 NuttX/nuttx/libs/libc/libc.a(lib_libfwrite.o)
 .text          0x00000000        0x0 NuttX/nuttx/libs/libc/libc.a(lib_rdflush.o)
 .data          0x00000000        0x0 NuttX/nuttx/libs/libc/libc.a(lib_rdflush.o)
 .bss           0x00000000        0x0 NuttX/nuttx/libs/libc/libc.a(lib_rdflush.o)
 .text          0x00000000        0x0 NuttX/nuttx/libs/libc/libc.a(lib_fseek.o)
 .data          0x00000000        0x0 NuttX/nuttx/libs/libc/libc.a(lib_fseek.o)
 .bss           0x00000000        0x0 NuttX/nuttx/libs/libc/libc.a(lib_fseek.o)
 .text          0x00000000        0x0 NuttX/nuttx/libs/libc/libc.a(lib_fseeko.o)
 .data          0x00000000        0x0 NuttX/nuttx/libs/libc/libc.a(lib_fseeko.o)
 .bss           0x00000000        0x0 NuttX/nuttx/libs/libc/libc.a(lib_fseeko.o)
 .text          0x00000000        0x0 NuttX/nuttx/libs/libc/libc.a(lib_wrflush.o)
 .data          0x00000000        0x0 NuttX/nuttx/libs/libc/libc.a(lib_wrflush.o)
 .bss           0x00000000        0x0 NuttX/nuttx/libs/libc/libc.a(lib_wrflush.o)
 .text          0x00000000        0x0 platforms/nuttx/src/bootloader/common/libbootloader.a(bl.c.obj)
 .data          0x00000000        0x0 platforms/nuttx/src/bootloader/common/libbootloader.a(bl.c.obj)
 .bss           0x00000000        0x0 platforms/nuttx/src/bootloader/common/libbootloader.a(bl.c.obj)
 .text.get_version
                0x00000000       0x1c platforms/nuttx/src/bootloader/common/libbootloader.a(bl.c.obj)
 .text.buf_put  0x00000000       0x28 platforms/nuttx/src/bootloader/common/libbootloader.a(bl.c.obj)
 .text.buf_get  0x00000000       0x2c platforms/nuttx/src/bootloader/common/libbootloader.a(bl.c.obj)
 .bss.rx_buf    0x00000000      0x100 platforms/nuttx/src/bootloader/common/libbootloader.a(bl.c.obj)
 .bss.tail      0x00000000        0x4 platforms/nuttx/src/bootloader/common/libbootloader.a(bl.c.obj)
 .bss.head      0x00000000        0x4 platforms/nuttx/src/bootloader/common/libbootloader.a(bl.c.obj)
 .text          0x00000000        0x0 platforms/nuttx/src/bootloader/common/lib/libbootloader_lib.a(cdcacm.c.obj)
 .data          0x00000000        0x0 platforms/nuttx/src/bootloader/common/lib/libbootloader_lib.a(cdcacm.c.obj)
 .bss           0x00000000        0x0 platforms/nuttx/src/bootloader/common/lib/libbootloader_lib.a(cdcacm.c.obj)
 .text          0x00000000        0x0 platforms/nuttx/src/bootloader/common/lib/libbootloader_lib.a(uart.c.obj)
 .data          0x00000000        0x0 platforms/nuttx/src/bootloader/common/lib/libbootloader_lib.a(uart.c.obj)
 .bss           0x00000000        0x0 platforms/nuttx/src/bootloader/common/lib/libbootloader_lib.a(uart.c.obj)
 .text          0x00000000        0x0 NuttX/nuttx/boards/libboards.a(boardctl.o)
 .data          0x00000000        0x0 NuttX/nuttx/boards/libboards.a(boardctl.o)
 .bss           0x00000000        0x0 NuttX/nuttx/boards/libboards.a(boardctl.o)
 .text          0x00000000        0x0 NuttX/nuttx/drivers/libdrivers.a(drivers_initialize.o)
 .data          0x00000000        0x0 NuttX/nuttx/drivers/libdrivers.a(drivers_initialize.o)
 .bss           0x00000000        0x0 NuttX/nuttx/drivers/libdrivers.a(drivers_initialize.o)
 .text          0x00000000        0x0 NuttX/nuttx/drivers/libdrivers.a(dev_null.o)
 .data          0x00000000        0x0 NuttX/nuttx/drivers/libdrivers.a(dev_null.o)
 .bss           0x00000000        0x0 NuttX/nuttx/drivers/libdrivers.a(dev_null.o)
 .text          0x00000000        0x0 NuttX/nuttx/drivers/libdrivers.a(serial.o)
 .data          0x00000000        0x0 NuttX/nuttx/drivers/libdrivers.a(serial.o)
 .bss           0x00000000        0x0 NuttX/nuttx/drivers/libdrivers.a(serial.o)
 .text          0x00000000        0x0 NuttX/nuttx/drivers/libdrivers.a(serial_io.o)
 .data          0x00000000        0x0 NuttX/nuttx/drivers/libdrivers.a(serial_io.o)
 .bss           0x00000000        0x0 NuttX/nuttx/drivers/libdrivers.a(serial_io.o)
 .text          0x00000000        0x0 NuttX/nuttx/drivers/libdrivers.a(syslog_flush.o)
 .data          0x00000000        0x0 NuttX/nuttx/drivers/libdrivers.a(syslog_flush.o)
 .bss           0x00000000        0x0 NuttX/nuttx/drivers/libdrivers.a(syslog_flush.o)
 .text          0x00000000        0x0 NuttX/nuttx/drivers/libdrivers.a(syslog_initialize.o)
 .data          0x00000000        0x0 NuttX/nuttx/drivers/libdrivers.a(syslog_initialize.o)
 .bss           0x00000000        0x0 NuttX/nuttx/drivers/libdrivers.a(syslog_initialize.o)
 .text          0x00000000        0x0 NuttX/nuttx/drivers/libdrivers.a(cdcacm.o)
 .data          0x00000000        0x0 NuttX/nuttx/drivers/libdrivers.a(cdcacm.o)
 .bss           0x00000000        0x0 NuttX/nuttx/drivers/libdrivers.a(cdcacm.o)
 .text          0x00000000        0x0 NuttX/nuttx/drivers/libdrivers.a(cdcacm_desc.o)
 .data          0x00000000        0x0 NuttX/nuttx/drivers/libdrivers.a(cdcacm_desc.o)
 .bss           0x00000000        0x0 NuttX/nuttx/drivers/libdrivers.a(cdcacm_desc.o)
 .text          0x00000000        0x0 NuttX/nuttx/drivers/libdrivers.a(syslog_channel.o)
 .data          0x00000000        0x0 NuttX/nuttx/drivers/libdrivers.a(syslog_channel.o)
 .bss           0x00000000        0x0 NuttX/nuttx/drivers/libdrivers.a(syslog_channel.o)
 .text.syslog_channel
                0x00000000       0x14 NuttX/nuttx/drivers/libdrivers.a(syslog_channel.o)
 .text.syslog_channel_remove
                0x00000000       0x28 NuttX/nuttx/drivers/libdrivers.a(syslog_channel.o)
 .text          0x00000000        0x0 NuttX/nuttx/fs/libfs.a(fs_initialize.o)
 .data          0x00000000        0x0 NuttX/nuttx/fs/libfs.a(fs_initialize.o)
 .bss           0x00000000        0x0 NuttX/nuttx/fs/libfs.a(fs_initialize.o)
 .text          0x00000000        0x0 NuttX/nuttx/fs/libfs.a(fs_files.o)
 .data          0x00000000        0x0 NuttX/nuttx/fs/libfs.a(fs_files.o)
 .bss           0x00000000        0x0 NuttX/nuttx/fs/libfs.a(fs_files.o)
 .text.files_duplist
                0x00000000       0x5a NuttX/nuttx/fs/libfs.a(fs_files.o)
 .text.nx_dup2  0x00000000       0x84 NuttX/nuttx/fs/libfs.a(fs_files.o)
 .text.dup2     0x00000000       0x1a NuttX/nuttx/fs/libfs.a(fs_files.o)
 .text          0x00000000        0x0 NuttX/nuttx/fs/libfs.a(fs_inode.o)
 .data          0x00000000        0x0 NuttX/nuttx/fs/libfs.a(fs_inode.o)
 .bss           0x00000000        0x0 NuttX/nuttx/fs/libfs.a(fs_inode.o)
 .text          0x00000000        0x0 NuttX/nuttx/fs/libfs.a(fs_inodereserve.o)
 .data          0x00000000        0x0 NuttX/nuttx/fs/libfs.a(fs_inodereserve.o)
 .bss           0x00000000        0x0 NuttX/nuttx/fs/libfs.a(fs_inodereserve.o)
 .text          0x00000000        0x0 NuttX/nuttx/fs/libfs.a(fs_inodesearch.o)
 .data          0x00000000        0x0 NuttX/nuttx/fs/libfs.a(fs_inodesearch.o)
 .bss           0x00000000        0x0 NuttX/nuttx/fs/libfs.a(fs_inodesearch.o)
 .text          0x00000000        0x0 NuttX/nuttx/fs/libfs.a(fs_close.o)
 .data          0x00000000        0x0 NuttX/nuttx/fs/libfs.a(fs_close.o)
 .bss           0x00000000        0x0 NuttX/nuttx/fs/libfs.a(fs_close.o)
 .text          0x00000000        0x0 NuttX/nuttx/fs/libfs.a(fs_dup2.o)
 .data          0x00000000        0x0 NuttX/nuttx/fs/libfs.a(fs_dup2.o)
 .bss           0x00000000        0x0 NuttX/nuttx/fs/libfs.a(fs_dup2.o)
 .text.file_dup2
                0x00000000       0x94 NuttX/nuttx/fs/libfs.a(fs_dup2.o)
 .debug_info    0x00000000      0xa21 NuttX/nuttx/fs/libfs.a(fs_dup2.o)
 .debug_abbrev  0x00000000      0x1f8 NuttX/nuttx/fs/libfs.a(fs_dup2.o)
 .debug_loclists
                0x00000000       0xb8 NuttX/nuttx/fs/libfs.a(fs_dup2.o)
 .debug_aranges
                0x00000000       0x20 NuttX/nuttx/fs/libfs.a(fs_dup2.o)
 .debug_rnglists
                0x00000000       0x14 NuttX/nuttx/fs/libfs.a(fs_dup2.o)
 .debug_line    0x00000000      0x2e4 NuttX/nuttx/fs/libfs.a(fs_dup2.o)
 .debug_str     0x00000000      0x4ac NuttX/nuttx/fs/libfs.a(fs_dup2.o)
 .comment       0x00000000       0x45 NuttX/nuttx/fs/libfs.a(fs_dup2.o)
 .debug_frame   0x00000000       0x38 NuttX/nuttx/fs/libfs.a(fs_dup2.o)
 .ARM.attributes
                0x00000000       0x32 NuttX/nuttx/fs/libfs.a(fs_dup2.o)
 .text          0x00000000        0x0 NuttX/nuttx/fs/libfs.a(fs_lseek.o)
 .data          0x00000000        0x0 NuttX/nuttx/fs/libfs.a(fs_lseek.o)
 .bss           0x00000000        0x0 NuttX/nuttx/fs/libfs.a(fs_lseek.o)
 .text          0x00000000        0x0 NuttX/nuttx/fs/libfs.a(fs_open.o)
 .data          0x00000000        0x0 NuttX/nuttx/fs/libfs.a(fs_open.o)
 .bss           0x00000000        0x0 NuttX/nuttx/fs/libfs.a(fs_open.o)
 .text.file_open
                0x00000000       0x1e NuttX/nuttx/fs/libfs.a(fs_open.o)
 .text.nx_open  0x00000000       0x1a NuttX/nuttx/fs/libfs.a(fs_open.o)
 .text          0x00000000        0x0 NuttX/nuttx/fs/libfs.a(fs_read.o)
 .data          0x00000000        0x0 NuttX/nuttx/fs/libfs.a(fs_read.o)
 .bss           0x00000000        0x0 NuttX/nuttx/fs/libfs.a(fs_read.o)
 .text          0x00000000        0x0 NuttX/nuttx/fs/libfs.a(fs_write.o)
 .data          0x00000000        0x0 NuttX/nuttx/fs/libfs.a(fs_write.o)
 .bss           0x00000000        0x0 NuttX/nuttx/fs/libfs.a(fs_write.o)
 .text          0x00000000        0x0 NuttX/nuttx/fs/libfs.a(fs_dir.o)
 .data          0x00000000        0x0 NuttX/nuttx/fs/libfs.a(fs_dir.o)
 .bss           0x00000000        0x0 NuttX/nuttx/fs/libfs.a(fs_dir.o)
 .text          0x00000000        0x0 NuttX/nuttx/fs/libfs.a(fs_fdopen.o)
 .data          0x00000000        0x0 NuttX/nuttx/fs/libfs.a(fs_fdopen.o)
 .bss           0x00000000        0x0 NuttX/nuttx/fs/libfs.a(fs_fdopen.o)
 .text          0x00000000        0x0 NuttX/nuttx/fs/libfs.a(fs_registerdriver.o)
 .data          0x00000000        0x0 NuttX/nuttx/fs/libfs.a(fs_registerdriver.o)
 .bss           0x00000000        0x0 NuttX/nuttx/fs/libfs.a(fs_registerdriver.o)
 .text          0x00000000        0x0 NuttX/nuttx/fs/libfs.a(fs_unregisterdriver.o)
 .data          0x00000000        0x0 NuttX/nuttx/fs/libfs.a(fs_unregisterdriver.o)
 .bss           0x00000000        0x0 NuttX/nuttx/fs/libfs.a(fs_unregisterdriver.o)
 .text          0x00000000        0x0 NuttX/nuttx/fs/libfs.a(fs_inodeaddref.o)
 .data          0x00000000        0x0 NuttX/nuttx/fs/libfs.a(fs_inodeaddref.o)
 .bss           0x00000000        0x0 NuttX/nuttx/fs/libfs.a(fs_inodeaddref.o)
 .text          0x00000000        0x0 NuttX/nuttx/fs/libfs.a(fs_inodefind.o)
 .data          0x00000000        0x0 NuttX/nuttx/fs/libfs.a(fs_inodefind.o)
 .bss           0x00000000        0x0 NuttX/nuttx/fs/libfs.a(fs_inodefind.o)
 .text          0x00000000        0x0 NuttX/nuttx/fs/libfs.a(fs_inoderelease.o)
 .data          0x00000000        0x0 NuttX/nuttx/fs/libfs.a(fs_inoderelease.o)
 .bss           0x00000000        0x0 NuttX/nuttx/fs/libfs.a(fs_inoderelease.o)
 .text          0x00000000        0x0 NuttX/nuttx/fs/libfs.a(fs_inoderemove.o)
 .data          0x00000000        0x0 NuttX/nuttx/fs/libfs.a(fs_inoderemove.o)
 .bss           0x00000000        0x0 NuttX/nuttx/fs/libfs.a(fs_inoderemove.o)
 .text          0x00000000        0x0 NuttX/nuttx/fs/libfs.a(fs_inodefree.o)
 .data          0x00000000        0x0 NuttX/nuttx/fs/libfs.a(fs_inodefree.o)
 .bss           0x00000000        0x0 NuttX/nuttx/fs/libfs.a(fs_inodefree.o)
 .text          0x00000000        0x0 NuttX/nuttx/sched/libsched.a(clock_initialize.o)
 .data          0x00000000        0x0 NuttX/nuttx/sched/libsched.a(clock_initialize.o)
 .bss           0x00000000        0x0 NuttX/nuttx/sched/libsched.a(clock_initialize.o)
 .text.clock_basetime
                0x00000000       0x20 NuttX/nuttx/sched/libsched.a(clock_initialize.o)
 .bss.g_basetime
                0x00000000        0x8 NuttX/nuttx/sched/libsched.a(clock_initialize.o)
 .text          0x00000000        0x0 NuttX/nuttx/sched/libsched.a(sched_getfiles.o)
 .data          0x00000000        0x0 NuttX/nuttx/sched/libsched.a(sched_getfiles.o)
 .bss           0x00000000        0x0 NuttX/nuttx/sched/libsched.a(sched_getfiles.o)
 .text          0x00000000        0x0 NuttX/nuttx/sched/libsched.a(sched_addreadytorun.o)
 .data          0x00000000        0x0 NuttX/nuttx/sched/libsched.a(sched_addreadytorun.o)
 .bss           0x00000000        0x0 NuttX/nuttx/sched/libsched.a(sched_addreadytorun.o)
 .text          0x00000000        0x0 NuttX/nuttx/sched/libsched.a(sched_removereadytorun.o)
 .data          0x00000000        0x0 NuttX/nuttx/sched/libsched.a(sched_removereadytorun.o)
 .bss           0x00000000        0x0 NuttX/nuttx/sched/libsched.a(sched_removereadytorun.o)
 .text          0x00000000        0x0 NuttX/nuttx/sched/libsched.a(sched_mergepending.o)
 .data          0x00000000        0x0 NuttX/nuttx/sched/libsched.a(sched_mergepending.o)
 .bss           0x00000000        0x0 NuttX/nuttx/sched/libsched.a(sched_mergepending.o)
 .text          0x00000000        0x0 NuttX/nuttx/sched/libsched.a(sched_getstreams.o)
 .data          0x00000000        0x0 NuttX/nuttx/sched/libsched.a(sched_getstreams.o)
 .bss           0x00000000        0x0 NuttX/nuttx/sched/libsched.a(sched_getstreams.o)
 .text          0x00000000        0x0 NuttX/nuttx/sched/libsched.a(sched_idletask.o)
 .data          0x00000000        0x0 NuttX/nuttx/sched/libsched.a(sched_idletask.o)
 .bss           0x00000000        0x0 NuttX/nuttx/sched/libsched.a(sched_idletask.o)
 .text          0x00000000        0x0 NuttX/nuttx/sched/libsched.a(sched_self.o)
 .data          0x00000000        0x0 NuttX/nuttx/sched/libsched.a(sched_self.o)
 .bss           0x00000000        0x0 NuttX/nuttx/sched/libsched.a(sched_self.o)
 .text          0x00000000        0x0 NuttX/nuttx/sched/libsched.a(sched_get_stackinfo.o)
 .data          0x00000000        0x0 NuttX/nuttx/sched/libsched.a(sched_get_stackinfo.o)
 .bss           0x00000000        0x0 NuttX/nuttx/sched/libsched.a(sched_get_stackinfo.o)
 .text          0x00000000        0x0 NuttX/nuttx/sched/libsched.a(sem_wait.o)
 .data          0x00000000        0x0 NuttX/nuttx/sched/libsched.a(sem_wait.o)
 .bss           0x00000000        0x0 NuttX/nuttx/sched/libsched.a(sem_wait.o)
 .text          0x00000000        0x0 NuttX/nuttx/sched/libsched.a(sem_post.o)
 .data          0x00000000        0x0 NuttX/nuttx/sched/libsched.a(sem_post.o)
 .bss           0x00000000        0x0 NuttX/nuttx/sched/libsched.a(sem_post.o)
 .text          0x00000000        0x0 NuttX/nuttx/sched/libsched.a(sem_reset.o)
 .data          0x00000000        0x0 NuttX/nuttx/sched/libsched.a(sem_reset.o)
 .bss           0x00000000        0x0 NuttX/nuttx/sched/libsched.a(sem_reset.o)
 .text          0x00000000        0x0 NuttX/nuttx/sched/libsched.a(sig_kill.o)
 .data          0x00000000        0x0 NuttX/nuttx/sched/libsched.a(sig_kill.o)
 .bss           0x00000000        0x0 NuttX/nuttx/sched/libsched.a(sig_kill.o)
 .text.kill     0x00000000       0x1a NuttX/nuttx/sched/libsched.a(sig_kill.o)
 .text          0x00000000        0x0 NuttX/nuttx/sched/libsched.a(sig_usleep.o)
 .data          0x00000000        0x0 NuttX/nuttx/sched/libsched.a(sig_usleep.o)
 .bss           0x00000000        0x0 NuttX/nuttx/sched/libsched.a(sig_usleep.o)
 .text          0x00000000        0x0 NuttX/nuttx/sched/libsched.a(task_exit.o)
 .data          0x00000000        0x0 NuttX/nuttx/sched/libsched.a(task_exit.o)
 .bss           0x00000000        0x0 NuttX/nuttx/sched/libsched.a(task_exit.o)
 .text          0x00000000        0x0 NuttX/nuttx/sched/libsched.a(task_getpid.o)
 .data          0x00000000        0x0 NuttX/nuttx/sched/libsched.a(task_getpid.o)
 .bss           0x00000000        0x0 NuttX/nuttx/sched/libsched.a(task_getpid.o)
 .text          0x00000000        0x0 NuttX/nuttx/sched/libsched.a(task_terminate.o)
 .data          0x00000000        0x0 NuttX/nuttx/sched/libsched.a(task_terminate.o)
 .bss           0x00000000        0x0 NuttX/nuttx/sched/libsched.a(task_terminate.o)
 .text          0x00000000        0x0 NuttX/nuttx/sched/libsched.a(task_gettid.o)
 .data          0x00000000        0x0 NuttX/nuttx/sched/libsched.a(task_gettid.o)
 .bss           0x00000000        0x0 NuttX/nuttx/sched/libsched.a(task_gettid.o)
 .text          0x00000000        0x0 NuttX/nuttx/sched/libsched.a(wd_start.o)
 .data          0x00000000        0x0 NuttX/nuttx/sched/libsched.a(wd_start.o)
 .bss           0x00000000        0x0 NuttX/nuttx/sched/libsched.a(wd_start.o)
 .text          0x00000000        0x0 NuttX/nuttx/sched/libsched.a(sig_nanosleep.o)
 .data          0x00000000        0x0 NuttX/nuttx/sched/libsched.a(sig_nanosleep.o)
 .bss           0x00000000        0x0 NuttX/nuttx/sched/libsched.a(sig_nanosleep.o)
 .text.clock_nanosleep
                0x00000000       0x6c NuttX/nuttx/sched/libsched.a(sig_nanosleep.o)
 .text          0x00000000        0x0 NuttX/nuttx/sched/libsched.a(clock_gettime.o)
 .data          0x00000000        0x0 NuttX/nuttx/sched/libsched.a(clock_gettime.o)
 .bss           0x00000000        0x0 NuttX/nuttx/sched/libsched.a(clock_gettime.o)
 .text.clock_gettime
                0x00000000       0x9c NuttX/nuttx/sched/libsched.a(clock_gettime.o)
 .debug_info    0x00000000      0x351 NuttX/nuttx/sched/libsched.a(clock_gettime.o)
 .debug_abbrev  0x00000000      0x274 NuttX/nuttx/sched/libsched.a(clock_gettime.o)
 .debug_loclists
                0x00000000      0x10c NuttX/nuttx/sched/libsched.a(clock_gettime.o)
 .debug_aranges
                0x00000000       0x20 NuttX/nuttx/sched/libsched.a(clock_gettime.o)
 .debug_rnglists
                0x00000000       0x20 NuttX/nuttx/sched/libsched.a(clock_gettime.o)
 .debug_line    0x00000000      0x3b5 NuttX/nuttx/sched/libsched.a(clock_gettime.o)
 .debug_str     0x00000000      0x2d6 NuttX/nuttx/sched/libsched.a(clock_gettime.o)
 .comment       0x00000000       0x45 NuttX/nuttx/sched/libsched.a(clock_gettime.o)
 .debug_frame   0x00000000       0x30 NuttX/nuttx/sched/libsched.a(clock_gettime.o)
 .ARM.attributes
                0x00000000       0x32 NuttX/nuttx/sched/libsched.a(clock_gettime.o)
 .text          0x00000000        0x0 NuttX/nuttx/sched/libsched.a(clock_systime_timespec.o)
 .data          0x00000000        0x0 NuttX/nuttx/sched/libsched.a(clock_systime_timespec.o)
 .bss           0x00000000        0x0 NuttX/nuttx/sched/libsched.a(clock_systime_timespec.o)
 .text.clock_systime_timespec
                0x00000000       0x2c NuttX/nuttx/sched/libsched.a(clock_systime_timespec.o)
 .debug_info    0x00000000      0x19b NuttX/nuttx/sched/libsched.a(clock_systime_timespec.o)
 .debug_abbrev  0x00000000      0x11a NuttX/nuttx/sched/libsched.a(clock_systime_timespec.o)
 .debug_loclists
                0x00000000       0x74 NuttX/nuttx/sched/libsched.a(clock_systime_timespec.o)
 .debug_aranges
                0x00000000       0x20 NuttX/nuttx/sched/libsched.a(clock_systime_timespec.o)
 .debug_rnglists
                0x00000000       0x25 NuttX/nuttx/sched/libsched.a(clock_systime_timespec.o)
 .debug_line    0x00000000      0x1ff NuttX/nuttx/sched/libsched.a(clock_systime_timespec.o)
 .debug_str     0x00000000      0x281 NuttX/nuttx/sched/libsched.a(clock_systime_timespec.o)
 .comment       0x00000000       0x45 NuttX/nuttx/sched/libsched.a(clock_systime_timespec.o)
 .debug_frame   0x00000000       0x2c NuttX/nuttx/sched/libsched.a(clock_systime_timespec.o)
 .ARM.attributes
                0x00000000       0x32 NuttX/nuttx/sched/libsched.a(clock_systime_timespec.o)
 .text          0x00000000        0x0 NuttX/nuttx/sched/libsched.a(sig_timedwait.o)
 .data          0x00000000        0x0 NuttX/nuttx/sched/libsched.a(sig_timedwait.o)
 .bss           0x00000000        0x0 NuttX/nuttx/sched/libsched.a(sig_timedwait.o)
 .text.sigtimedwait
                0x00000000       0x1a NuttX/nuttx/sched/libsched.a(sig_timedwait.o)
 .text          0x00000000        0x0 NuttX/nuttx/arch/arm/src/libarch.a(stm32_timerisr.o)
 .data          0x00000000        0x0 NuttX/nuttx/arch/arm/src/libarch.a(stm32_timerisr.o)
 .bss           0x00000000        0x0 NuttX/nuttx/arch/arm/src/libarch.a(stm32_timerisr.o)
 .text          0x00000000        0x0 NuttX/nuttx/arch/arm/src/libarch.a(arm_nputs.o)
 .data          0x00000000        0x0 NuttX/nuttx/arch/arm/src/libarch.a(arm_nputs.o)
 .bss           0x00000000        0x0 NuttX/nuttx/arch/arm/src/libarch.a(arm_nputs.o)
 .text          0x00000000        0x0 NuttX/nuttx/mm/libmm.a(umm_realloc.o)
 .data          0x00000000        0x0 NuttX/nuttx/mm/libmm.a(umm_realloc.o)
 .bss           0x00000000        0x0 NuttX/nuttx/mm/libmm.a(umm_realloc.o)
 .text          0x00000000        0x0 NuttX/nuttx/mm/libmm.a(mm_realloc.o)
 .data          0x00000000        0x0 NuttX/nuttx/mm/libmm.a(mm_realloc.o)
 .bss           0x00000000        0x0 NuttX/nuttx/mm/libmm.a(mm_realloc.o)
 .text          0x00000000        0x0 NuttX/nuttx/mm/libmm.a(mm_shrinkchunk.o)
 .data          0x00000000        0x0 NuttX/nuttx/mm/libmm.a(mm_shrinkchunk.o)
 .bss           0x00000000        0x0 NuttX/nuttx/mm/libmm.a(mm_shrinkchunk.o)
 .text          0x00000000        0x0 NuttX/nuttx/libs/libc/libc.a(lib_umask.o)
 .data          0x00000000        0x0 NuttX/nuttx/libs/libc/libc.a(lib_umask.o)
 .bss           0x00000000        0x0 NuttX/nuttx/libs/libc/libc.a(lib_umask.o)
 .text.umask    0x00000000       0x10 NuttX/nuttx/libs/libc/libc.a(lib_umask.o)
 .text          0x00000000        0x0 NuttX/nuttx/libs/libc/libc.a(sq_addfirst.o)
 .data          0x00000000        0x0 NuttX/nuttx/libs/libc/libc.a(sq_addfirst.o)
 .bss           0x00000000        0x0 NuttX/nuttx/libs/libc/libc.a(sq_addfirst.o)
 .text          0x00000000        0x0 NuttX/nuttx/libs/libc/libc.a(sq_addafter.o)
 .data          0x00000000        0x0 NuttX/nuttx/libs/libc/libc.a(sq_addafter.o)
 .bss           0x00000000        0x0 NuttX/nuttx/libs/libc/libc.a(sq_addafter.o)
 .text          0x00000000        0x0 NuttX/nuttx/libs/libc/libc.a(clock_ticks2time.o)
 .data          0x00000000        0x0 NuttX/nuttx/libs/libc/libc.a(clock_ticks2time.o)
 .bss           0x00000000        0x0 NuttX/nuttx/libs/libc/libc.a(clock_ticks2time.o)
 .text          0x00000000        0x0 NuttX/nuttx/libs/libc/libc.a(clock_time2ticks.o)
 .data          0x00000000        0x0 NuttX/nuttx/libs/libc/libc.a(clock_time2ticks.o)
 .bss           0x00000000        0x0 NuttX/nuttx/libs/libc/libc.a(clock_time2ticks.o)
 .text          0x00000000        0x0 NuttX/nuttx/libs/libc/libc.a(clock_timespec_subtract.o)
 .data          0x00000000        0x0 NuttX/nuttx/libs/libc/libc.a(clock_timespec_subtract.o)
 .bss           0x00000000        0x0 NuttX/nuttx/libs/libc/libc.a(clock_timespec_subtract.o)
 .text.clock_timespec_subtract
                0x00000000       0x3c NuttX/nuttx/libs/libc/libc.a(clock_timespec_subtract.o)
 .debug_info    0x00000000      0x139 NuttX/nuttx/libs/libc/libc.a(clock_timespec_subtract.o)
 .debug_abbrev  0x00000000       0xd7 NuttX/nuttx/libs/libc/libc.a(clock_timespec_subtract.o)
 .debug_loclists
                0x00000000       0x61 NuttX/nuttx/libs/libc/libc.a(clock_timespec_subtract.o)
 .debug_aranges
                0x00000000       0x20 NuttX/nuttx/libs/libc/libc.a(clock_timespec_subtract.o)
 .debug_rnglists
                0x00000000       0x13 NuttX/nuttx/libs/libc/libc.a(clock_timespec_subtract.o)
 .debug_line    0x00000000      0x1d0 NuttX/nuttx/libs/libc/libc.a(clock_timespec_subtract.o)
 .debug_str     0x00000000      0x228 NuttX/nuttx/libs/libc/libc.a(clock_timespec_subtract.o)
 .comment       0x00000000       0x45 NuttX/nuttx/libs/libc/libc.a(clock_timespec_subtract.o)
 .debug_frame   0x00000000       0x2c NuttX/nuttx/libs/libc/libc.a(clock_timespec_subtract.o)
 .ARM.attributes
                0x00000000       0x32 NuttX/nuttx/libs/libc/libc.a(clock_timespec_subtract.o)
 .text          0x00000000        0x0 NuttX/nuttx/libs/libc/libc.a(sem_setprotocol.o)
 .data          0x00000000        0x0 NuttX/nuttx/libs/libc/libc.a(sem_setprotocol.o)
 .bss           0x00000000        0x0 NuttX/nuttx/libs/libc/libc.a(sem_setprotocol.o)
 .text.sem_setprotocol
                0x00000000       0x1a NuttX/nuttx/libs/libc/libc.a(sem_setprotocol.o)
 .text          0x00000000        0x0 NuttX/nuttx/libs/libc/libc.a(lib_asprintf.o)
 .data          0x00000000        0x0 NuttX/nuttx/libs/libc/libc.a(lib_asprintf.o)
 .bss           0x00000000        0x0 NuttX/nuttx/libs/libc/libc.a(lib_asprintf.o)
 .text          0x00000000        0x0 NuttX/nuttx/libs/libc/libc.a(lib_snprintf.o)
 .data          0x00000000        0x0 NuttX/nuttx/libs/libc/libc.a(lib_snprintf.o)
 .bss           0x00000000        0x0 NuttX/nuttx/libs/libc/libc.a(lib_snprintf.o)
 .text          0x00000000        0x0 NuttX/nuttx/libs/libc/libc.a(lib_vasprintf.o)
 .data          0x00000000        0x0 NuttX/nuttx/libs/libc/libc.a(lib_vasprintf.o)
 .bss           0x00000000        0x0 NuttX/nuttx/libs/libc/libc.a(lib_vasprintf.o)
 .text          0x00000000        0x0 NuttX/nuttx/libs/libc/libc.a(lib_atol.o)
 .data          0x00000000        0x0 NuttX/nuttx/libs/libc/libc.a(lib_atol.o)
 .bss           0x00000000        0x0 NuttX/nuttx/libs/libc/libc.a(lib_atol.o)
 .text          0x00000000        0x0 NuttX/nuttx/libs/libc/libc.a(lib_strtol.o)
 .data          0x00000000        0x0 NuttX/nuttx/libs/libc/libc.a(lib_strtol.o)
 .bss           0x00000000        0x0 NuttX/nuttx/libs/libc/libc.a(lib_strtol.o)
 .text          0x00000000        0x0 NuttX/nuttx/libs/libc/libc.a(lib_strtoul.o)
 .data          0x00000000        0x0 NuttX/nuttx/libs/libc/libc.a(lib_strtoul.o)
 .bss           0x00000000        0x0 NuttX/nuttx/libs/libc/libc.a(lib_strtoul.o)
 .text          0x00000000        0x0 NuttX/nuttx/libs/libc/libc.a(lib_checkbase.o)
 .data          0x00000000        0x0 NuttX/nuttx/libs/libc/libc.a(lib_checkbase.o)
 .bss           0x00000000        0x0 NuttX/nuttx/libs/libc/libc.a(lib_checkbase.o)
 .text          0x00000000        0x0 NuttX/nuttx/libs/libc/libc.a(lib_memoutstream.o)
 .data          0x00000000        0x0 NuttX/nuttx/libs/libc/libc.a(lib_memoutstream.o)
 .bss           0x00000000        0x0 NuttX/nuttx/libs/libc/libc.a(lib_memoutstream.o)
 .text          0x00000000        0x0 NuttX/nuttx/libs/libc/libc.a(lib_nulloutstream.o)
 .data          0x00000000        0x0 NuttX/nuttx/libs/libc/libc.a(lib_nulloutstream.o)
 .bss           0x00000000        0x0 NuttX/nuttx/libs/libc/libc.a(lib_nulloutstream.o)
 .text          0x00000000        0x0 NuttX/nuttx/libs/libc/libc.a(lib_isbasedigit.o)
 .data          0x00000000        0x0 NuttX/nuttx/libs/libc/libc.a(lib_isbasedigit.o)
 .bss           0x00000000        0x0 NuttX/nuttx/libs/libc/libc.a(lib_isbasedigit.o)
 .text          0x00000000        0x0 NuttX/nuttx/libs/libc/libc.a(lib_skipspace.o)
 .data          0x00000000        0x0 NuttX/nuttx/libs/libc/libc.a(lib_skipspace.o)
 .bss           0x00000000        0x0 NuttX/nuttx/libs/libc/libc.a(lib_skipspace.o)
 .text          0x00000000        0x0 NuttX/nuttx/libs/libc/libc.a(lib_strdup.o)
 .data          0x00000000        0x0 NuttX/nuttx/libs/libc/libc.a(lib_strdup.o)
 .bss           0x00000000        0x0 NuttX/nuttx/libs/libc/libc.a(lib_strdup.o)
 .text          0x00000000        0x0 NuttX/nuttx/libs/libc/libc.a(lib_strtok.o)
 .data          0x00000000        0x0 NuttX/nuttx/libs/libc/libc.a(lib_strtok.o)
 .bss           0x00000000        0x0 NuttX/nuttx/libs/libc/libc.a(lib_strtok.o)
 .text          0x00000000        0x0 NuttX/nuttx/libs/libc/libc.a(lib_strtokr.o)
 .data          0x00000000        0x0 NuttX/nuttx/libs/libc/libc.a(lib_strtokr.o)
 .bss           0x00000000        0x0 NuttX/nuttx/libs/libc/libc.a(lib_strtokr.o)
 .text          0x00000000        0x0 NuttX/nuttx/libs/libc/libc.a(lib_strchr.o)
 .data          0x00000000        0x0 NuttX/nuttx/libs/libc/libc.a(lib_strchr.o)
 .bss           0x00000000        0x0 NuttX/nuttx/libs/libc/libc.a(lib_strchr.o)
 .text          0x00000000        0x0 NuttX/nuttx/libs/libc/libc.a(lib_tcgetattr.o)
 .data          0x00000000        0x0 NuttX/nuttx/libs/libc/libc.a(lib_tcgetattr.o)
 .bss           0x00000000        0x0 NuttX/nuttx/libs/libc/libc.a(lib_tcgetattr.o)
 .text          0x00000000        0x0 NuttX/nuttx/libs/libc/libc.a(lib_tcsetattr.o)
 .data          0x00000000        0x0 NuttX/nuttx/libs/libc/libc.a(lib_tcsetattr.o)
 .bss           0x00000000        0x0 NuttX/nuttx/libs/libc/libc.a(lib_tcsetattr.o)
 .text          0x00000000        0x0 NuttX/nuttx/libs/libc/libc.a(lib_calendar2utc.o)
 .data          0x00000000        0x0 NuttX/nuttx/libs/libc/libc.a(lib_calendar2utc.o)
 .bss           0x00000000        0x0 NuttX/nuttx/libs/libc/libc.a(lib_calendar2utc.o)
 .text.clock_calendar2utc
                0x00000000       0x36 NuttX/nuttx/libs/libc/libc.a(lib_calendar2utc.o)
 .debug_info    0x00000000      0x155 NuttX/nuttx/libs/libc/libc.a(lib_calendar2utc.o)
 .debug_abbrev  0x00000000       0xce NuttX/nuttx/libs/libc/libc.a(lib_calendar2utc.o)
 .debug_loclists
                0x00000000       0xe6 NuttX/nuttx/libs/libc/libc.a(lib_calendar2utc.o)
 .debug_aranges
                0x00000000       0x20 NuttX/nuttx/libs/libc/libc.a(lib_calendar2utc.o)
 .debug_rnglists
                0x00000000       0x13 NuttX/nuttx/libs/libc/libc.a(lib_calendar2utc.o)
 .debug_line    0x00000000      0x18d NuttX/nuttx/libs/libc/libc.a(lib_calendar2utc.o)
 .debug_str     0x00000000      0x23b NuttX/nuttx/libs/libc/libc.a(lib_calendar2utc.o)
 .comment       0x00000000       0x45 NuttX/nuttx/libs/libc/libc.a(lib_calendar2utc.o)
 .debug_frame   0x00000000       0x2c NuttX/nuttx/libs/libc/libc.a(lib_calendar2utc.o)
 .ARM.attributes
                0x00000000       0x32 NuttX/nuttx/libs/libc/libc.a(lib_calendar2utc.o)
 .text          0x00000000        0x0 NuttX/nuttx/libs/libc/libc.a(lib_daysbeforemonth.o)
 .data          0x00000000        0x0 NuttX/nuttx/libs/libc/libc.a(lib_daysbeforemonth.o)
 .bss           0x00000000        0x0 NuttX/nuttx/libs/libc/libc.a(lib_daysbeforemonth.o)
 .text.clock_daysbeforemonth
                0x00000000       0x18 NuttX/nuttx/libs/libc/libc.a(lib_daysbeforemonth.o)
 .rodata.g_daysbeforemonth
                0x00000000       0x1a NuttX/nuttx/libs/libc/libc.a(lib_daysbeforemonth.o)
 .debug_info    0x00000000      0x110 NuttX/nuttx/libs/libc/libc.a(lib_daysbeforemonth.o)
 .debug_abbrev  0x00000000       0xb9 NuttX/nuttx/libs/libc/libc.a(lib_daysbeforemonth.o)
 .debug_loclists
                0x00000000       0x2b NuttX/nuttx/libs/libc/libc.a(lib_daysbeforemonth.o)
 .debug_aranges
                0x00000000       0x20 NuttX/nuttx/libs/libc/libc.a(lib_daysbeforemonth.o)
 .debug_rnglists
                0x00000000       0x13 NuttX/nuttx/libs/libc/libc.a(lib_daysbeforemonth.o)
 .debug_line    0x00000000      0x17c NuttX/nuttx/libs/libc/libc.a(lib_daysbeforemonth.o)
 .debug_str     0x00000000      0x22b NuttX/nuttx/libs/libc/libc.a(lib_daysbeforemonth.o)
 .comment       0x00000000       0x45 NuttX/nuttx/libs/libc/libc.a(lib_daysbeforemonth.o)
 .debug_frame   0x00000000       0x20 NuttX/nuttx/libs/libc/libc.a(lib_daysbeforemonth.o)
 .ARM.attributes
                0x00000000       0x32 NuttX/nuttx/libs/libc/libc.a(lib_daysbeforemonth.o)
 .text          0x00000000        0x0 NuttX/nuttx/libs/libc/libc.a(lib_isleapyear.o)
 .data          0x00000000        0x0 NuttX/nuttx/libs/libc/libc.a(lib_isleapyear.o)
 .bss           0x00000000        0x0 NuttX/nuttx/libs/libc/libc.a(lib_isleapyear.o)
 .text.clock_isleapyear
                0x00000000       0x2c NuttX/nuttx/libs/libc/libc.a(lib_isleapyear.o)
 .debug_info    0x00000000       0x9f NuttX/nuttx/libs/libc/libc.a(lib_isleapyear.o)
 .debug_abbrev  0x00000000       0x59 NuttX/nuttx/libs/libc/libc.a(lib_isleapyear.o)
 .debug_loclists
                0x00000000       0x2e NuttX/nuttx/libs/libc/libc.a(lib_isleapyear.o)
 .debug_aranges
                0x00000000       0x20 NuttX/nuttx/libs/libc/libc.a(lib_isleapyear.o)
 .debug_rnglists
                0x00000000       0x13 NuttX/nuttx/libs/libc/libc.a(lib_isleapyear.o)
 .debug_line    0x00000000       0xd9 NuttX/nuttx/libs/libc/libc.a(lib_isleapyear.o)
 .debug_str     0x00000000      0x1e5 NuttX/nuttx/libs/libc/libc.a(lib_isleapyear.o)
 .comment       0x00000000       0x45 NuttX/nuttx/libs/libc/libc.a(lib_isleapyear.o)
 .debug_frame   0x00000000       0x20 NuttX/nuttx/libs/libc/libc.a(lib_isleapyear.o)
 .ARM.attributes
                0x00000000       0x32 NuttX/nuttx/libs/libc/libc.a(lib_isleapyear.o)
 .text          0x00000000        0x0 NuttX/nuttx/libs/libc/libc.a(task_getinfo.o)
 .data          0x00000000        0x0 NuttX/nuttx/libs/libc/libc.a(task_getinfo.o)
 .bss           0x00000000        0x0 NuttX/nuttx/libs/libc/libc.a(task_getinfo.o)
 .text          0x00000000        0x0 NuttX/nuttx/libs/libc/libc.a(lib_isspace.o)
 .data          0x00000000        0x0 NuttX/nuttx/libs/libc/libc.a(lib_isspace.o)
 .bss           0x00000000        0x0 NuttX/nuttx/libs/libc/libc.a(lib_isspace.o)
 .text          0x00000000        0x0 NuttX/nuttx/libs/libc/libc.a(lib_tcflush.o)
 .data          0x00000000        0x0 NuttX/nuttx/libs/libc/libc.a(lib_tcflush.o)
 .bss           0x00000000        0x0 NuttX/nuttx/libs/libc/libc.a(lib_tcflush.o)
 .text          0x00000000        0x0 NuttX/nuttx/libs/libc/libc.a(lib_tcdrain.o)
 .data          0x00000000        0x0 NuttX/nuttx/libs/libc/libc.a(lib_tcdrain.o)
 .bss           0x00000000        0x0 NuttX/nuttx/libs/libc/libc.a(lib_tcdrain.o)
 .text          0x00000000        0x0 NuttX/nuttx/fs/libfs.a(fs_ioctl.o)
 .data          0x00000000        0x0 NuttX/nuttx/fs/libfs.a(fs_ioctl.o)
 .bss           0x00000000        0x0 NuttX/nuttx/fs/libfs.a(fs_ioctl.o)
 .text.file_ioctl
                0x00000000       0x1a NuttX/nuttx/fs/libfs.a(fs_ioctl.o)
 .text.nx_ioctl
                0x00000000       0x2a NuttX/nuttx/fs/libfs.a(fs_ioctl.o)
 .text          0x00000000        0x0 NuttX/nuttx/fs/libfs.a(fs_inodegetpath.o)
 .data          0x00000000        0x0 NuttX/nuttx/fs/libfs.a(fs_inodegetpath.o)
 .bss           0x00000000        0x0 NuttX/nuttx/fs/libfs.a(fs_inodegetpath.o)
 .text          0x00000000        0x0 NuttX/nuttx/sched/libsched.a(sched_processtimer.o)
 .data          0x00000000        0x0 NuttX/nuttx/sched/libsched.a(sched_processtimer.o)
 .bss           0x00000000        0x0 NuttX/nuttx/sched/libsched.a(sched_processtimer.o)
 .text          0x00000000        0x0 NuttX/nuttx/libs/libc/libc.a(lib_strcat.o)
 .data          0x00000000        0x0 NuttX/nuttx/libs/libc/libc.a(lib_strcat.o)
 .bss           0x00000000        0x0 NuttX/nuttx/libs/libc/libc.a(lib_strcat.o)
 .data          0x00000000        0x0 /opt/homebrew/Cellar/arm-gcc-bin@13/13.2.rel1/bin/../lib/gcc/arm-none-eabi/13.2.1/thumb/v7e-m+dp/hard/libgcc.a(_aeabi_ldivmod.o)
 .bss           0x00000000        0x0 /opt/homebrew/Cellar/arm-gcc-bin@13/13.2.rel1/bin/../lib/gcc/arm-none-eabi/13.2.1/thumb/v7e-m+dp/hard/libgcc.a(_aeabi_ldivmod.o)
 .data          0x00000000        0x0 /opt/homebrew/Cellar/arm-gcc-bin@13/13.2.rel1/bin/../lib/gcc/arm-none-eabi/13.2.1/thumb/v7e-m+dp/hard/libgcc.a(_aeabi_uldivmod.o)
 .bss           0x00000000        0x0 /opt/homebrew/Cellar/arm-gcc-bin@13/13.2.rel1/bin/../lib/gcc/arm-none-eabi/13.2.1/thumb/v7e-m+dp/hard/libgcc.a(_aeabi_uldivmod.o)
 .text          0x00000000        0x0 /opt/homebrew/Cellar/arm-gcc-bin@13/13.2.rel1/bin/../lib/gcc/arm-none-eabi/13.2.1/thumb/v7e-m+dp/hard/libgcc.a(_fixunsdfdi.o)
 .data          0x00000000        0x0 /opt/homebrew/Cellar/arm-gcc-bin@13/13.2.rel1/bin/../lib/gcc/arm-none-eabi/13.2.1/thumb/v7e-m+dp/hard/libgcc.a(_fixunsdfdi.o)
 .bss           0x00000000        0x0 /opt/homebrew/Cellar/arm-gcc-bin@13/13.2.rel1/bin/../lib/gcc/arm-none-eabi/13.2.1/thumb/v7e-m+dp/hard/libgcc.a(_fixunsdfdi.o)
 .text          0x00000000        0x0 /opt/homebrew/Cellar/arm-gcc-bin@13/13.2.rel1/bin/../lib/gcc/arm-none-eabi/13.2.1/thumb/v7e-m+dp/hard/libgcc.a(_udivmoddi4.o)
 .data          0x00000000        0x0 /opt/homebrew/Cellar/arm-gcc-bin@13/13.2.rel1/bin/../lib/gcc/arm-none-eabi/13.2.1/thumb/v7e-m+dp/hard/libgcc.a(_udivmoddi4.o)
 .bss           0x00000000        0x0 /opt/homebrew/Cellar/arm-gcc-bin@13/13.2.rel1/bin/../lib/gcc/arm-none-eabi/13.2.1/thumb/v7e-m+dp/hard/libgcc.a(_udivmoddi4.o)
 .ARM.extab.text.__udivmoddi4
                0x00000000        0x0 /opt/homebrew/Cellar/arm-gcc-bin@13/13.2.rel1/bin/../lib/gcc/arm-none-eabi/13.2.1/thumb/v7e-m+dp/hard/libgcc.a(_udivmoddi4.o)
 .data          0x00000000        0x0 /opt/homebrew/Cellar/arm-gcc-bin@13/13.2.rel1/bin/../lib/gcc/arm-none-eabi/13.2.1/thumb/v7e-m+dp/hard/libgcc.a(_dvmd_tls.o)
 .bss           0x00000000        0x0 /opt/homebrew/Cellar/arm-gcc-bin@13/13.2.rel1/bin/../lib/gcc/arm-none-eabi/13.2.1/thumb/v7e-m+dp/hard/libgcc.a(_dvmd_tls.o)
 .text          0x00000000        0x0 platforms/nuttx/src/bootloader/stm/stm32h7/arch_bootloader/libarch_bootloader.a(main.c.obj)
 .data          0x00000000        0x0 platforms/nuttx/src/bootloader/stm/stm32h7/arch_bootloader/libarch_bootloader.a(main.c.obj)
 .bss           0x00000000        0x0 platforms/nuttx/src/bootloader/stm/stm32h7/arch_bootloader/libarch_bootloader.a(main.c.obj)
 .text.check_silicon
                0x00000000        0x4 platforms/nuttx/src/bootloader/stm/stm32h7/arch_bootloader/libarch_bootloader.a(main.c.obj)
 .rodata.silicon_revs
                0x00000000       0x10 platforms/nuttx/src/bootloader/stm/stm32h7/arch_bootloader/libarch_bootloader.a(main.c.obj)
 .text          0x00000000        0x0 platforms/nuttx/src/bootloader/stm/stm32h7/arch_bootloader/libarch_bootloader.a(systick.c.obj)
 .data          0x00000000        0x0 platforms/nuttx/src/bootloader/stm/stm32h7/arch_bootloader/libarch_bootloader.a(systick.c.obj)
 .bss           0x00000000        0x0 platforms/nuttx/src/bootloader/stm/stm32h7/arch_bootloader/libarch_bootloader.a(systick.c.obj)
 .text.systick_get_countflag
                0x00000000        0xc platforms/nuttx/src/bootloader/stm/stm32h7/arch_bootloader/libarch_bootloader.a(systick.c.obj)
 .text          0x00000000        0x0 platforms/nuttx/src/px4/stm/stm32h7/board_reset/libarch_board_reset.a(board_reset.cpp.obj)
 .data          0x00000000        0x0 platforms/nuttx/src/px4/stm/stm32h7/board_reset/libarch_board_reset.a(board_reset.cpp.obj)
 .bss           0x00000000        0x0 platforms/nuttx/src/px4/stm/stm32h7/board_reset/libarch_board_reset.a(board_reset.cpp.obj)
 .text          0x00000000        0x0 NuttX/nuttx/arch/arm/src/libarch.a(stm32_flash.o)
 .data          0x00000000        0x0 NuttX/nuttx/arch/arm/src/libarch.a(stm32_flash.o)
 .bss           0x00000000        0x0 NuttX/nuttx/arch/arm/src/libarch.a(stm32_flash.o)
 .text.stm32h7_flash_writeprotect
                0x00000000       0x3e NuttX/nuttx/arch/arm/src/libarch.a(stm32_flash.o)
 .text.stm32h7_flash_getopt
                0x00000000       0x12 NuttX/nuttx/arch/arm/src/libarch.a(stm32_flash.o)
 .text.stm32h7_flash_optmodify
                0x00000000       0x94 NuttX/nuttx/arch/arm/src/libarch.a(stm32_flash.o)
 .text.stm32h7_flash_swapbanks
                0x00000000       0x1e NuttX/nuttx/arch/arm/src/libarch.a(stm32_flash.o)
 .text.up_progmem_pagesize
                0x00000000        0x4 NuttX/nuttx/arch/arm/src/libarch.a(stm32_flash.o)
 .text.up_progmem_getpage
                0x00000000       0x1c NuttX/nuttx/arch/arm/src/libarch.a(stm32_flash.o)
 .text.up_progmem_neraseblocks
                0x00000000        0x4 NuttX/nuttx/arch/arm/src/libarch.a(stm32_flash.o)
 .text.up_progmem_isuniform
                0x00000000        0x4 NuttX/nuttx/arch/arm/src/libarch.a(stm32_flash.o)
 .text.up_progmem_erasesize
                0x00000000        0x6 NuttX/nuttx/arch/arm/src/libarch.a(stm32_flash.o)
 .text.up_progmem_erasestate
                0x00000000        0x4 NuttX/nuttx/arch/arm/src/libarch.a(stm32_flash.o)
 .text          0x00000000        0x0 NuttX/nuttx/arch/arm/src/libarch.a(arm_systemreset.o)
 .data          0x00000000        0x0 NuttX/nuttx/arch/arm/src/libarch.a(arm_systemreset.o)
 .bss           0x00000000        0x0 NuttX/nuttx/arch/arm/src/libarch.a(arm_systemreset.o)
 .text          0x00000000        0x0 platforms/nuttx/src/bootloader/common/lib/libbootloader_lib.a(flash_cache.c.obj)
 .data          0x00000000        0x0 platforms/nuttx/src/bootloader/common/lib/libbootloader_lib.a(flash_cache.c.obj)
 .bss           0x00000000        0x0 platforms/nuttx/src/bootloader/common/lib/libbootloader_lib.a(flash_cache.c.obj)

Memory Configuration

Name             Origin             Length             Attributes
itcm             0x00000000         0x00010000         xrw
flash            0x08000000         0x00200000         xr
dtcm1            0x20000000         0x00010000         xrw
dtcm2            0x20010000         0x00010000         xrw
sram             0x24000000         0x00080000         xrw
sram1            0x30000000         0x00020000         xrw
sram2            0x30020000         0x00020000         xrw
sram3            0x30040000         0x00008000         xrw
sram4            0x38000000         0x00010000         xrw
bbram            0x38800000         0x00001000         xrw
*default*        0x00000000         0xffffffff

Linker script and memory map

LOAD platforms/nuttx/CMakeFiles/px4.dir/__/common/empty.c.obj

.text           0x08000000     0xa7bc
                0x08000000                        _stext = ABSOLUTE (.)
 *(.vectors)
 .vectors       0x08000000      0x298 NuttX/nuttx/arch/arm/src/libarch.a(arm_vectors.o)
                0x08000000                _vectors
                0x080002a0                        . = ALIGN (0x20)
 *fill*         0x08000298        0x8 
                0x080002a0                        _bootdelay_signature = ABSOLUTE (.)
 FILL mask 0xffecc2925d7d05c5
                0x080002a8                        . = (. + 0x8)
 *fill*         0x080002a0        0x8 ffecc2925d7d05c5
 *(.text .text.*)
 .text.exception_common
                0x080002a8       0x5c NuttX/nuttx/arch/arm/src/libarch.a(arm_exception.o)
                0x080002a8                exception_common
 .text.__start  0x08000304       0x90 NuttX/nuttx/arch/arm/src/libarch.a(stm32_start.o)
                0x08000304                __start
 .text.stm32_stdclockconfig
                0x08000394      0x1c4 NuttX/nuttx/arch/arm/src/libarch.a(stm32_rcc.o)
                0x08000394                stm32_stdclockconfig
 .text.stm32_clockconfig
                0x08000558       0xbc NuttX/nuttx/arch/arm/src/libarch.a(stm32_rcc.o)
                0x08000558                stm32_clockconfig
 .text.stm32_lowsetup
                0x08000614        0x2 NuttX/nuttx/arch/arm/src/libarch.a(stm32_lowputc.o)
                0x08000614                stm32_lowsetup
 *fill*         0x08000616        0x2 ffecc2925d7d05c5
 .text.stm32_pwr_enablebkp
                0x08000618       0x84 NuttX/nuttx/arch/arm/src/libarch.a(stm32_pwr.o)
                0x08000618                stm32_pwr_enablebkp
 .text.stm32_pwr_initbkp
                0x0800069c       0x3c NuttX/nuttx/arch/arm/src/libarch.a(stm32_pwr.o)
                0x0800069c                stm32_pwr_initbkp
 .text.modifyreg32
                0x080006d8       0x2a NuttX/nuttx/arch/arm/src/libarch.a(arm_modifyreg32.o)
                0x080006d8                modifyreg32
 *fill*         0x08000702        0x2 ffecc2925d7d05c5
 .text.up_udelay
                0x08000704       0x7c NuttX/nuttx/arch/arm/src/libarch.a(arm_udelay.o)
                0x08000704                up_udelay
 .text.up_enable_icache
                0x08000780       0x28 NuttX/nuttx/arch/arm/src/libarch.a(arm_cache.o)
                0x08000780                up_enable_icache
 .text.arm_doirq
                0x080007a8       0x30 NuttX/nuttx/arch/arm/src/libarch.a(arm_doirq.o)
                0x080007a8                arm_doirq
 .text.arm_fpuconfig
                0x080007d8       0x2a NuttX/nuttx/arch/arm/src/libarch.a(arm_fpuconfig.o)
                0x080007d8                arm_fpuconfig
 *fill*         0x08000802        0x2 ffecc2925d7d05c5
 .text.stm32_irqinfo
                0x08000804       0xb4 NuttX/nuttx/arch/arm/src/libarch.a(stm32_irq.o)
 .text.up_irqinitialize
                0x080008b8       0xa4 NuttX/nuttx/arch/arm/src/libarch.a(stm32_irq.o)
                0x080008b8                up_irqinitialize
 .text.up_disable_irq
                0x0800095c       0x28 NuttX/nuttx/arch/arm/src/libarch.a(stm32_irq.o)
                0x0800095c                up_disable_irq
 .text.up_enable_irq
                0x08000984       0x26 NuttX/nuttx/arch/arm/src/libarch.a(stm32_irq.o)
                0x08000984                up_enable_irq
 .text.arm_ack_irq
                0x080009aa        0x2 NuttX/nuttx/arch/arm/src/libarch.a(stm32_irq.o)
                0x080009aa                arm_ack_irq
 .text.arm_hardfault
                0x080009ac       0x30 NuttX/nuttx/arch/arm/src/libarch.a(arm_hardfault.o)
                0x080009ac                arm_hardfault
 .text.arm_svcall
                0x080009dc       0x30 NuttX/nuttx/arch/arm/src/libarch.a(arm_svcall.o)
                0x080009dc                arm_svcall
 *fill*         0x08000a0c        0x4 ffecc2925d7d05c5
 .text.memcpy   0x08000a10      0x230 NuttX/nuttx/libs/libc/libc.a(arch_memcpy.o)
                0x08000a30                memcpy
 .text._assert  0x08000c40        0xc NuttX/nuttx/libs/libc/libc.a(lib_assert.o)
                0x08000c40                _assert
 .text.unlikely.abort
                0x08000c4c        0x8 NuttX/nuttx/libs/libc/libc.a(lib_abort.o)
                0x08000c4c                abort
 .text.exit     0x08000c54        0x6 NuttX/nuttx/libs/libc/libc.a(lib_exit.o)
                0x08000c54                exit
 .text.memset   0x08000c5a       0x90 NuttX/nuttx/libs/libc/libc.a(lib_memset.o)
                0x08000c5a                memset
 .text.board_on_reset
                0x08000cea        0x2 boards/hkust/nxt-dual/src/libdrivers_board.a(bootloader_main.c.obj)
                0x08000cea                board_on_reset
 .text.stm32_boardinitialize
                0x08000cec        0x4 boards/hkust/nxt-dual/src/libdrivers_board.a(bootloader_main.c.obj)
                0x08000cec                stm32_boardinitialize
 .text.board_app_initialize
                0x08000cf0        0x4 boards/hkust/nxt-dual/src/libdrivers_board.a(bootloader_main.c.obj)
                0x08000cf0                board_app_initialize
 .text.board_late_initialize
                0x08000cf4        0x8 boards/hkust/nxt-dual/src/libdrivers_board.a(bootloader_main.c.obj)
                0x08000cf4                board_late_initialize
 .text.board_timerhook
                0x08000cfc        0x4 boards/hkust/nxt-dual/src/libdrivers_board.a(bootloader_main.c.obj)
                0x08000cfc                board_timerhook
 .text.stm32_usbinitialize
                0x08000d00        0xc boards/hkust/nxt-dual/src/libdrivers_board.a(usb.c.obj)
                0x08000d00                stm32_usbinitialize
 .text.stm32_usbsuspend
                0x08000d0c        0x2 boards/hkust/nxt-dual/src/libdrivers_board.a(usb.c.obj)
                0x08000d0c                stm32_usbsuspend
 *fill*         0x08000d0e        0x2 ffecc2925d7d05c5
 .text.nx_start
                0x08000d10      0x128 NuttX/nuttx/sched/libsched.a(nx_start.o)
                0x08000d10                nx_start
 .text.nx_start_task
                0x08000e38       0x28 NuttX/nuttx/sched/libsched.a(nx_bringup.o)
 .text.nx_bringup
                0x08000e60       0x24 NuttX/nuttx/sched/libsched.a(nx_bringup.o)
                0x08000e60                nx_bringup
 .text.irq_attach
                0x08000e84       0x50 NuttX/nuttx/sched/libsched.a(irq_attach.o)
                0x08000e84                irq_attach
 .text.irq_dispatch
                0x08000ed4       0x3c NuttX/nuttx/sched/libsched.a(irq_dispatch.o)
                0x08000ed4                irq_dispatch
 .text.irq_unexpected_isr
                0x08000f10       0x24 NuttX/nuttx/sched/libsched.a(irq_unexpectedisr.o)
                0x08000f10                irq_unexpected_isr
 .text.sched_lock
                0x08000f34       0x20 NuttX/nuttx/sched/libsched.a(sched_lock.o)
                0x08000f34                sched_lock
 .text.sched_unlock
                0x08000f54       0x5c NuttX/nuttx/sched/libsched.a(sched_unlock.o)
                0x08000f54                sched_unlock
 .text.nxthread_create
                0x08000fb0       0x56 NuttX/nuttx/sched/libsched.a(task_create.o)
 .text.nxtask_create
                0x08001006       0x18 NuttX/nuttx/sched/libsched.a(task_create.o)
                0x08001006                nxtask_create
 .text.kthread_create_with_stack
                0x0800101e       0x1a NuttX/nuttx/sched/libsched.a(task_create.o)
                0x0800101e                kthread_create_with_stack
 .text.kthread_create
                0x08001038       0x14 NuttX/nuttx/sched/libsched.a(task_create.o)
                0x08001038                kthread_create
 .text.nxtask_init
                0x0800104c       0xa0 NuttX/nuttx/sched/libsched.a(task_init.o)
                0x0800104c                nxtask_init
 .text.nxtask_setup_scheduler
                0x080010ec      0x120 NuttX/nuttx/sched/libsched.a(task_setup.o)
                0x080010ec                nxtask_setup_scheduler
 .text.nxtask_setup_arguments
                0x0800120c       0xd8 NuttX/nuttx/sched/libsched.a(task_setup.o)
                0x0800120c                nxtask_setup_arguments
 .text.nxtask_activate
                0x080012e4       0x24 NuttX/nuttx/sched/libsched.a(task_activate.o)
                0x080012e4                nxtask_activate
 .text.nxtask_start
                0x08001308       0x54 NuttX/nuttx/sched/libsched.a(task_start.o)
                0x08001308                nxtask_start
 .text._exit    0x0800135c       0x1c NuttX/nuttx/sched/libsched.a(exit.o)
                0x0800135c                _exit
 .text.tls_init_info
                0x08001378       0x1c NuttX/nuttx/sched/libsched.a(tls_initinfo.o)
                0x08001378                tls_init_info
 .text.group_allocate
                0x08001394       0x3c NuttX/nuttx/sched/libsched.a(group_create.o)
                0x08001394                group_allocate
 .text.group_initialize
                0x080013d0        0xc NuttX/nuttx/sched/libsched.a(group_create.o)
                0x080013d0                group_initialize
 .text.group_leave
                0x080013dc       0x3a NuttX/nuttx/sched/libsched.a(group_leave.o)
                0x080013dc                group_leave
 .text.group_setupidlefiles
                0x08001416        0x4 NuttX/nuttx/sched/libsched.a(group_setupidlefiles.o)
                0x08001416                group_setupidlefiles
 .text.group_setuptaskfiles
                0x0800141a        0x4 NuttX/nuttx/sched/libsched.a(group_setuptaskfiles.o)
                0x0800141a                group_setuptaskfiles
 *fill*         0x0800141e        0x2 ffecc2925d7d05c5
 .text.irq_initialize
                0x08001420       0x1c NuttX/nuttx/sched/libsched.a(irq_initialize.o)
                0x08001420                irq_initialize
 .text.nxsched_release_tcb
                0x0800143c       0x5c NuttX/nuttx/sched/libsched.a(sched_releasetcb.o)
                0x0800143c                nxsched_release_tcb
 .text.nxsig_procmask
                0x08001498       0x70 NuttX/nuttx/sched/libsched.a(sig_procmask.o)
                0x08001498                nxsig_procmask
 .text.nxsig_unmask_pendingsignal
                0x08001508       0x64 NuttX/nuttx/sched/libsched.a(sig_unmaskpendingsignal.o)
                0x08001508                nxsig_unmask_pendingsignal
 .text.nxsig_remove_pendingsignal
                0x0800156c       0x48 NuttX/nuttx/sched/libsched.a(sig_removependingsignal.o)
                0x0800156c                nxsig_remove_pendingsignal
 .text.nxsig_release_pendingsignal
                0x080015b4       0x5c NuttX/nuttx/sched/libsched.a(sig_releasependingsignal.o)
                0x080015b4                nxsig_release_pendingsignal
 .text.nxsig_lowest
                0x08001610       0x1e NuttX/nuttx/sched/libsched.a(sig_lowest.o)
                0x08001610                nxsig_lowest
 .text.nxsig_cleanup
                0x0800162e       0x32 NuttX/nuttx/sched/libsched.a(sig_cleanup.o)
                0x0800162e                nxsig_cleanup
 .text.nxsig_release
                0x08001660       0x28 NuttX/nuttx/sched/libsched.a(sig_cleanup.o)
                0x08001660                nxsig_release
 .text.nxsig_tcbdispatch
                0x08001688      0x204 NuttX/nuttx/sched/libsched.a(sig_dispatch.o)
                0x08001688                nxsig_tcbdispatch
 .text.nxsig_dispatch
                0x0800188c       0x1a NuttX/nuttx/sched/libsched.a(sig_dispatch.o)
                0x0800188c                nxsig_dispatch
 .text.nxsig_deliver
                0x080018a6       0xdc NuttX/nuttx/sched/libsched.a(sig_deliver.o)
                0x080018a6                nxsig_deliver
 .text.nxsig_null_action
                0x08001982        0x2 NuttX/nuttx/sched/libsched.a(sig_default.o)
 .text.nxsig_stop_task
                0x08001984       0x1c NuttX/nuttx/sched/libsched.a(sig_default.o)
 .text.nxsig_abnormal_termination
                0x080019a0       0x10 NuttX/nuttx/sched/libsched.a(sig_default.o)
 .text.nxsig_isdefault
                0x080019b0       0x14 NuttX/nuttx/sched/libsched.a(sig_default.o)
                0x080019b0                nxsig_isdefault
 .text.nxsig_iscatchable
                0x080019c4       0x2c NuttX/nuttx/sched/libsched.a(sig_default.o)
                0x080019c4                nxsig_iscatchable
 .text.nxsig_default
                0x080019f0       0x74 NuttX/nuttx/sched/libsched.a(sig_default.o)
                0x080019f0                nxsig_default
 .text.nxsig_default_initialize
                0x08001a64       0x50 NuttX/nuttx/sched/libsched.a(sig_default.o)
                0x08001a64                nxsig_default_initialize
 .text.nxtask_exithook
                0x08001ab4       0x38 NuttX/nuttx/sched/libsched.a(task_exithook.o)
                0x08001ab4                nxtask_exithook
 .text.nxtask_recover
                0x08001aec       0x12 NuttX/nuttx/sched/libsched.a(task_recover.o)
                0x08001aec                nxtask_recover
 .text.task_init_info
                0x08001afe       0x22 NuttX/nuttx/sched/libsched.a(task_initinfo.o)
                0x08001afe                task_init_info
 .text.task_uninit_info
                0x08001b20       0x14 NuttX/nuttx/sched/libsched.a(task_uninitinfo.o)
                0x08001b20                task_uninit_info
 .text.wd_recover
                0x08001b34        0x6 NuttX/nuttx/sched/libsched.a(wd_recover.o)
                0x08001b34                wd_recover
 .text.group_setupstreams
                0x08001b3a       0x2c NuttX/nuttx/sched/libsched.a(group_setupstreams.o)
                0x08001b3a                group_setupstreams
 *fill*         0x08001b66        0x2 ffecc2925d7d05c5
 .text.nxsched_get_tcb
                0x08001b68       0x4c NuttX/nuttx/sched/libsched.a(sched_gettcb.o)
                0x08001b68                nxsched_get_tcb
 .text.nxsched_suspend
                0x08001bb4       0x42 NuttX/nuttx/sched/libsched.a(sched_suspend.o)
                0x08001bb4                nxsched_suspend
 .text.nxsched_continue
                0x08001bf6       0x24 NuttX/nuttx/sched/libsched.a(sched_continue.o)
                0x08001bf6                nxsched_continue
 .text.nxsem_destroy
                0x08001c1a       0x16 NuttX/nuttx/sched/libsched.a(sem_destroy.o)
                0x08001c1a                nxsem_destroy
 .text.sem_destroy
                0x08001c30       0x1a NuttX/nuttx/sched/libsched.a(sem_destroy.o)
                0x08001c30                sem_destroy
 .text.nxsem_recover
                0x08001c4a       0x32 NuttX/nuttx/sched/libsched.a(sem_recover.o)
                0x08001c4a                nxsem_recover
 .text.nxsem_wait_irq
                0x08001c7c       0x3a NuttX/nuttx/sched/libsched.a(sem_waitirq.o)
                0x08001c7c                nxsem_wait_irq
 *fill*         0x08001cb6        0x2 ffecc2925d7d05c5
 .text.nxsig_initialize
                0x08001cb8       0xbc NuttX/nuttx/sched/libsched.a(sig_initialize.o)
                0x08001cb8                nxsig_initialize
 .text.nxsig_release_action
                0x08001d74       0x2c NuttX/nuttx/sched/libsched.a(sig_action.o)
                0x08001d74                nxsig_release_action
 .text.nxsig_action
                0x08001da0      0x164 NuttX/nuttx/sched/libsched.a(sig_action.o)
                0x08001da0                nxsig_action
 .text.nxsig_pendingset
                0x08001f04       0x38 NuttX/nuttx/sched/libsched.a(sig_pending.o)
                0x08001f04                nxsig_pendingset
 .text.nxsig_find_action
                0x08001f3c       0x22 NuttX/nuttx/sched/libsched.a(sig_findaction.o)
                0x08001f3c                nxsig_find_action
 *fill*         0x08001f5e        0x2 ffecc2925d7d05c5
 .text.nxsig_alloc_pendingsigaction
                0x08001f60       0x58 NuttX/nuttx/sched/libsched.a(sig_allocpendingsigaction.o)
                0x08001f60                nxsig_alloc_pendingsigaction
 .text.nxsig_release_pendingsigaction
                0x08001fb8       0x5c NuttX/nuttx/sched/libsched.a(sig_releasependingsigaction.o)
                0x08001fb8                nxsig_release_pendingsigaction
 .text.wd_cancel
                0x08002014       0x68 NuttX/nuttx/sched/libsched.a(wd_cancel.o)
                0x08002014                wd_cancel
 .text.nxsched_add_blocked
                0x0800207c       0x28 NuttX/nuttx/sched/libsched.a(sched_addblocked.o)
                0x0800207c                nxsched_add_blocked
 .text.nxsched_remove_blocked
                0x080020a4       0x1c NuttX/nuttx/sched/libsched.a(sched_removeblocked.o)
                0x080020a4                nxsched_remove_blocked
 .text.nxsched_add_prioritized
                0x080020c0       0x40 NuttX/nuttx/sched/libsched.a(sched_addprioritized.o)
                0x080020c0                nxsched_add_prioritized
 .text.binfmt_initialize
                0x08002100        0x2 NuttX/nuttx/binfmt/libbinfmt.a(binfmt_initialize.o)
                0x08002100                binfmt_initialize
 *fill*         0x08002102        0x2 ffecc2925d7d05c5
 .text.sercon_main
                0x08002104       0x60 NuttX/apps/libapps.a(cdcacm_main.c.Users.carbs.Desktop.PX4-Autopilot.platforms.nuttx.NuttX.apps.system.cdcacm.o)
                0x08002104                sercon_main
 .text.up_allocate_heap
                0x08002164       0x18 NuttX/nuttx/arch/arm/src/libarch.a(stm32_allocateheap.o)
                0x08002164                up_allocate_heap
 .text.stm32_gpiowrite
                0x0800217c       0x28 NuttX/nuttx/arch/arm/src/libarch.a(stm32_gpio.o)
                0x0800217c                stm32_gpiowrite
 .text.stm32_configgpio
                0x080021a4      0x1d0 NuttX/nuttx/arch/arm/src/libarch.a(stm32_gpio.o)
                0x080021a4                stm32_configgpio
 .text.stm32_unconfiggpio
                0x08002374        0x6 NuttX/nuttx/arch/arm/src/libarch.a(stm32_gpio.o)
                0x08002374                stm32_unconfiggpio
 *fill*         0x0800237a        0x2 ffecc2925d7d05c5
 .text.stm32_gpioread
                0x0800237c       0x30 NuttX/nuttx/arch/arm/src/libarch.a(stm32_gpio.o)
                0x0800237c                stm32_gpioread
 .text.up_assert
                0x080023ac       0x4c NuttX/nuttx/arch/arm/src/libarch.a(arm_assert.o)
                0x080023ac                up_assert
 .text.up_block_task
                0x080023f8       0x5c NuttX/nuttx/arch/arm/src/libarch.a(arm_blocktask.o)
                0x080023f8                up_block_task
 .text.up_create_stack
                0x08002454       0x4c NuttX/nuttx/arch/arm/src/libarch.a(arm_createstack.o)
                0x08002454                up_create_stack
 .text.up_exit  0x080024a0       0x2c NuttX/nuttx/arch/arm/src/libarch.a(arm_exit.o)
                0x080024a0                up_exit
 .text.arm_fullcontextrestore
                0x080024cc        0xc NuttX/nuttx/arch/arm/src/libarch.a(arm_fullcontextrestore.o)
                0x080024cc                arm_fullcontextrestore
 .text.up_initialize
                0x080024d8       0x30 NuttX/nuttx/arch/arm/src/libarch.a(arm_initialize.o)
                0x080024d8                up_initialize
 .text.up_release_pending
                0x08002508       0x34 NuttX/nuttx/arch/arm/src/libarch.a(arm_releasepending.o)
                0x08002508                up_release_pending
 .text.up_release_stack
                0x0800253c       0x24 NuttX/nuttx/arch/arm/src/libarch.a(arm_releasestack.o)
                0x0800253c                up_release_stack
 .text.up_stack_frame
                0x08002560       0x36 NuttX/nuttx/arch/arm/src/libarch.a(arm_stackframe.o)
                0x08002560                up_stack_frame
 .text.arm_switchcontext
                0x08002596       0x10 NuttX/nuttx/arch/arm/src/libarch.a(arm_switchcontext.o)
                0x08002596                arm_switchcontext
 *fill*         0x080025a6        0x2 ffecc2925d7d05c5
 .text.up_unblock_task
                0x080025a8       0x3c NuttX/nuttx/arch/arm/src/libarch.a(arm_unblocktask.o)
                0x080025a8                up_unblock_task
 .text.up_use_stack
                0x080025e4       0x2e NuttX/nuttx/arch/arm/src/libarch.a(arm_usestack.o)
                0x080025e4                up_use_stack
 *fill*         0x08002612        0x2 ffecc2925d7d05c5
 .text.arm_stack_color
                0x08002614       0x40 NuttX/nuttx/arch/arm/src/libarch.a(arm_checkstack.o)
                0x08002614                arm_stack_color
 .text.up_idle  0x08002654        0x2 NuttX/nuttx/arch/arm/src/libarch.a(arm_idle.o)
                0x08002654                up_idle
 *fill*         0x08002656        0x2 ffecc2925d7d05c5
 .text.up_initial_state
                0x08002658       0x78 NuttX/nuttx/arch/arm/src/libarch.a(arm_initialstate.o)
                0x08002658                up_initial_state
 .text.up_schedule_sigaction
                0x080026d0       0x84 NuttX/nuttx/arch/arm/src/libarch.a(arm_schedulesigaction.o)
                0x080026d0                up_schedule_sigaction
 .text.arm_sigdeliver
                0x08002754       0x3c NuttX/nuttx/arch/arm/src/libarch.a(arm_sigdeliver.o)
                0x08002754                arm_sigdeliver
 .text.up_setusartint
                0x08002790       0x22 NuttX/nuttx/arch/arm/src/libarch.a(stm32_serial.o)
 .text.up_restoreusartint
                0x080027b2       0x24 NuttX/nuttx/arch/arm/src/libarch.a(stm32_serial.o)
 *fill*         0x080027d6        0x2 ffecc2925d7d05c5
 .text.up_set_format
                0x080027d8       0xe4 NuttX/nuttx/arch/arm/src/libarch.a(stm32_serial.o)
 .text.up_receive
                0x080028bc       0x1a NuttX/nuttx/arch/arm/src/libarch.a(stm32_serial.o)
 .text.up_rxint
                0x080028d6       0x3a NuttX/nuttx/arch/arm/src/libarch.a(stm32_serial.o)
 .text.up_rxavailable
                0x08002910        0xc NuttX/nuttx/arch/arm/src/libarch.a(stm32_serial.o)
 .text.up_send  0x0800291c        0x8 NuttX/nuttx/arch/arm/src/libarch.a(stm32_serial.o)
 .text.up_txint
                0x08002924       0x38 NuttX/nuttx/arch/arm/src/libarch.a(stm32_serial.o)
 .text.up_txready
                0x0800295c        0xc NuttX/nuttx/arch/arm/src/libarch.a(stm32_serial.o)
 .text.up_ioctl
                0x08002968       0xae NuttX/nuttx/arch/arm/src/libarch.a(stm32_serial.o)
 .text.up_detach
                0x08002a16       0x1c NuttX/nuttx/arch/arm/src/libarch.a(stm32_serial.o)
 *fill*         0x08002a32        0x2 ffecc2925d7d05c5
 .text.up_attach
                0x08002a34       0x24 NuttX/nuttx/arch/arm/src/libarch.a(stm32_serial.o)
 .text.up_interrupt
                0x08002a58       0x46 NuttX/nuttx/arch/arm/src/libarch.a(stm32_serial.o)
 .text.up_rxflowcontrol
                0x08002a9e       0x24 NuttX/nuttx/arch/arm/src/libarch.a(stm32_serial.o)
 *fill*         0x08002ac2        0x2 ffecc2925d7d05c5
 .text.up_setup
                0x08002ac4       0x98 NuttX/nuttx/arch/arm/src/libarch.a(stm32_serial.o)
 .text.up_shutdown
                0x08002b5c       0x70 NuttX/nuttx/arch/arm/src/libarch.a(stm32_serial.o)
 .text.arm_serialinit
                0x08002bcc       0x38 NuttX/nuttx/arch/arm/src/libarch.a(stm32_serial.o)
                0x08002bcc                arm_serialinit
 .text.up_putc  0x08002c04        0x2 NuttX/nuttx/arch/arm/src/libarch.a(stm32_serial.o)
                0x08002c04                up_putc
 .text.stm32_req_complete
                0x08002c06       0x3c NuttX/nuttx/arch/arm/src/libarch.a(stm32_otgdev.o)
 .text.stm32_req_dispatch
                0x08002c42       0x32 NuttX/nuttx/arch/arm/src/libarch.a(stm32_otgdev.o)
 .text.stm32_epout_configure
                0x08002c74       0x68 NuttX/nuttx/arch/arm/src/libarch.a(stm32_otgdev.o)
 .text.stm32_epin_configure
                0x08002cdc       0x64 NuttX/nuttx/arch/arm/src/libarch.a(stm32_otgdev.o)
 .text.stm32_ep_configure
                0x08002d40       0x16 NuttX/nuttx/arch/arm/src/libarch.a(stm32_otgdev.o)
 *fill*         0x08002d56        0x2 ffecc2925d7d05c5
 .text.stm32_ep_clrstall
                0x08002d58       0x38 NuttX/nuttx/arch/arm/src/libarch.a(stm32_otgdev.o)
 .text.stm32_ep_alloc
                0x08002d90       0x76 NuttX/nuttx/arch/arm/src/libarch.a(stm32_otgdev.o)
 .text.stm32_ep_free
                0x08002e06       0x38 NuttX/nuttx/arch/arm/src/libarch.a(stm32_otgdev.o)
 *fill*         0x08002e3e        0x2 ffecc2925d7d05c5
 .text.stm32_getframe
                0x08002e40       0x10 NuttX/nuttx/arch/arm/src/libarch.a(stm32_otgdev.o)
 .text.stm32_selfpowered
                0x08002e50        0xc NuttX/nuttx/arch/arm/src/libarch.a(stm32_otgdev.o)
 .text.stm32_pullup
                0x08002e5c       0x3c NuttX/nuttx/arch/arm/src/libarch.a(stm32_otgdev.o)
 .text.stm32_ep_freereq
                0x08002e98        0x6 NuttX/nuttx/arch/arm/src/libarch.a(stm32_otgdev.o)
 .text.stm32_ep_allocreq
                0x08002e9e       0x18 NuttX/nuttx/arch/arm/src/libarch.a(stm32_otgdev.o)
 *fill*         0x08002eb6        0x2 ffecc2925d7d05c5
 .text.stm32_wakeup
                0x08002eb8       0x50 NuttX/nuttx/arch/arm/src/libarch.a(stm32_otgdev.o)
 .text.stm32_epout_request
                0x08002f08       0x84 NuttX/nuttx/arch/arm/src/libarch.a(stm32_otgdev.o)
 .text.stm32_rxfifo_flush.isra.0
                0x08002f8c       0x20 NuttX/nuttx/arch/arm/src/libarch.a(stm32_otgdev.o)
 .text.stm32_txfifo_flush.isra.0
                0x08002fac       0x24 NuttX/nuttx/arch/arm/src/libarch.a(stm32_otgdev.o)
 .text.stm32_req_cancel
                0x08002fd0       0x2e NuttX/nuttx/arch/arm/src/libarch.a(stm32_otgdev.o)
 .text.stm32_ep_cancel
                0x08002ffe       0x2a NuttX/nuttx/arch/arm/src/libarch.a(stm32_otgdev.o)
 .text.stm32_ep_disable
                0x08003028      0x118 NuttX/nuttx/arch/arm/src/libarch.a(stm32_otgdev.o)
 .text.stm32_rxfifo_discard.isra.0
                0x08003140       0x1c NuttX/nuttx/arch/arm/src/libarch.a(stm32_otgdev.o)
 .text.stm32_rxfifo_read.isra.0
                0x0800315c       0x38 NuttX/nuttx/arch/arm/src/libarch.a(stm32_otgdev.o)
 .text.stm32_epin_transfer
                0x08003194       0x90 NuttX/nuttx/arch/arm/src/libarch.a(stm32_otgdev.o)
 .text.stm32_epin_request
                0x08003224       0xdc NuttX/nuttx/arch/arm/src/libarch.a(stm32_otgdev.o)
 .text.stm32_ep_submit
                0x08003300       0x68 NuttX/nuttx/arch/arm/src/libarch.a(stm32_otgdev.o)
 .text.stm32_ep0out_ctrlsetup.isra.0
                0x08003368       0x20 NuttX/nuttx/arch/arm/src/libarch.a(stm32_otgdev.o)
 .text.stm32_ep0in_setupresponse
                0x08003388       0x1c NuttX/nuttx/arch/arm/src/libarch.a(stm32_otgdev.o)
 .text.stm32_ep0in_transmitzlp
                0x080033a4        0x8 NuttX/nuttx/arch/arm/src/libarch.a(stm32_otgdev.o)
 .text.stm32_usbreset.constprop.0
                0x080033ac       0xe8 NuttX/nuttx/arch/arm/src/libarch.a(stm32_otgdev.o)
 .text.stm32_epout_setstall
                0x08003494       0x54 NuttX/nuttx/arch/arm/src/libarch.a(stm32_otgdev.o)
 .text.stm32_ep_setstall
                0x080034e8       0x2c NuttX/nuttx/arch/arm/src/libarch.a(stm32_otgdev.o)
 .text.stm32_ep_stall
                0x08003514       0x2c NuttX/nuttx/arch/arm/src/libarch.a(stm32_otgdev.o)
 .text.stm32_ep0out_setup
                0x08003540      0x320 NuttX/nuttx/arch/arm/src/libarch.a(stm32_otgdev.o)
 .text.stm32_usbinterrupt
                0x08003860      0x4a4 NuttX/nuttx/arch/arm/src/libarch.a(stm32_otgdev.o)
 .text.usbdev_register
                0x08003d04       0x34 NuttX/nuttx/arch/arm/src/libarch.a(stm32_otgdev.o)
                0x08003d04                usbdev_register
 .text.usbdev_unregister
                0x08003d38       0x64 NuttX/nuttx/arch/arm/src/libarch.a(stm32_otgdev.o)
                0x08003d38                usbdev_unregister
 .text.arm_usbuninitialize
                0x08003d9c       0xb8 NuttX/nuttx/arch/arm/src/libarch.a(stm32_otgdev.o)
                0x08003d9c                arm_usbuninitialize
 .text.arm_usbinitialize
                0x08003e54      0x270 NuttX/nuttx/arch/arm/src/libarch.a(stm32_otgdev.o)
                0x08003e54                arm_usbinitialize
 .text.up_mdelay
                0x080040c4       0x30 NuttX/nuttx/arch/arm/src/libarch.a(arm_mdelay.o)
                0x080040c4                up_mdelay
 .text.umm_initialize
                0x080040f4       0x1c NuttX/nuttx/mm/libmm.a(umm_initialize.o)
                0x080040f4                umm_initialize
 .text.free     0x08004110       0x10 NuttX/nuttx/mm/libmm.a(umm_free.o)
                0x08004110                free
 .text.malloc   0x08004120       0x10 NuttX/nuttx/mm/libmm.a(umm_malloc.o)
                0x08004120                malloc
 .text.zalloc   0x08004130       0x10 NuttX/nuttx/mm/libmm.a(umm_zalloc.o)
                0x08004130                zalloc
 .text.mm_addregion
                0x08004140       0x64 NuttX/nuttx/mm/libmm.a(mm_initialize.o)
                0x08004140                mm_addregion
 .text.mm_initialize
                0x080041a4       0x52 NuttX/nuttx/mm/libmm.a(mm_initialize.o)
                0x080041a4                mm_initialize
 .text.mm_seminitialize
                0x080041f6        0x8 NuttX/nuttx/mm/libmm.a(mm_sem.o)
                0x080041f6                mm_seminitialize
 *fill*         0x080041fe        0x2 ffecc2925d7d05c5
 .text.mm_takesemaphore
                0x08004200       0x48 NuttX/nuttx/mm/libmm.a(mm_sem.o)
                0x08004200                mm_takesemaphore
 .text.mm_givesemaphore
                0x08004248       0x10 NuttX/nuttx/mm/libmm.a(mm_sem.o)
                0x08004248                mm_givesemaphore
 .text.mm_addfreechunk
                0x08004258       0x36 NuttX/nuttx/mm/libmm.a(mm_addfreechunk.o)
                0x08004258                mm_addfreechunk
 .text.mm_size2ndx
                0x0800428e       0x1a NuttX/nuttx/mm/libmm.a(mm_size2ndx.o)
                0x0800428e                mm_size2ndx
 .text.mm_free  0x080042a8       0xb8 NuttX/nuttx/mm/libmm.a(mm_free.o)
                0x080042a8                mm_free
 .text.mm_malloc
                0x08004360       0xba NuttX/nuttx/mm/libmm.a(mm_malloc.o)
                0x08004360                mm_malloc
 .text.mm_zalloc
                0x0800441a       0x18 NuttX/nuttx/mm/libmm.a(mm_zalloc.o)
                0x0800441a                mm_zalloc
 *fill*         0x08004432        0x2 ffecc2925d7d05c5
 .text.__errno  0x08004434       0x14 NuttX/nuttx/libs/libc/libc.a(lib_errno.o)
                0x08004434                __errno
 .text.sq_addlast
                0x08004448       0x14 NuttX/nuttx/libs/libc/libc.a(sq_addlast.o)
                0x08004448                sq_addlast
 .text.sq_rem   0x0800445c       0x2c NuttX/nuttx/libs/libc/libc.a(sq_rem.o)
                0x0800445c                sq_rem
 .text.sq_remfirst
                0x08004488       0x14 NuttX/nuttx/libs/libc/libc.a(sq_remfirst.o)
                0x08004488                sq_remfirst
 .text.sq_remafter
                0x0800449c       0x20 NuttX/nuttx/libs/libc/libc.a(sq_remafter.o)
                0x0800449c                sq_remafter
 .text.dq_addlast
                0x080044bc       0x16 NuttX/nuttx/libs/libc/libc.a(dq_addlast.o)
                0x080044bc                dq_addlast
 .text.dq_addfirst
                0x080044d2       0x16 NuttX/nuttx/libs/libc/libc.a(dq_addfirst.o)
                0x080044d2                dq_addfirst
 .text.dq_rem   0x080044e8       0x1c NuttX/nuttx/libs/libc/libc.a(dq_rem.o)
                0x080044e8                dq_rem
 .text.nxtask_startup
                0x08004504       0x16 NuttX/nuttx/libs/libc/libc.a(task_startup.o)
                0x08004504                nxtask_startup
 .text.nxsem_init
                0x0800451a       0x16 NuttX/nuttx/libs/libc/libc.a(sem_init.o)
                0x0800451a                nxsem_init
 .text.sem_init
                0x08004530       0x20 NuttX/nuttx/libs/libc/libc.a(sem_init.o)
                0x08004530                sem_init
 .text.nxsem_get_value
                0x08004550       0x14 NuttX/nuttx/libs/libc/libc.a(sem_getvalue.o)
                0x08004550                nxsem_get_value
 .text.sem_getvalue
                0x08004564       0x1a NuttX/nuttx/libs/libc/libc.a(sem_getvalue.o)
                0x08004564                sem_getvalue
 .text.nxsig_addset
                0x0800457e       0x18 NuttX/nuttx/libs/libc/libc.a(sig_addset.o)
                0x0800457e                nxsig_addset
 .text.nxsig_delset
                0x08004596       0x18 NuttX/nuttx/libs/libc/libc.a(sig_delset.o)
                0x08004596                nxsig_delset
 .text.sigemptyset
                0x080045ae        0x8 NuttX/nuttx/libs/libc/libc.a(sig_emptyset.o)
                0x080045ae                sigemptyset
 .text.nxsig_ismember
                0x080045b6       0x12 NuttX/nuttx/libs/libc/libc.a(sig_ismember.o)
                0x080045b6                nxsig_ismember
 .text.printf   0x080045c8       0x24 NuttX/nuttx/libs/libc/libc.a(lib_printf.o)
                0x080045c8                printf
 .text.lib_flushall
                0x080045ec       0x5a NuttX/nuttx/libs/libc/libc.a(lib_libflushall.o)
                0x080045ec                lib_flushall
 .text.lib_fflush
                0x08004646       0x90 NuttX/nuttx/libs/libc/libc.a(lib_libfflush.o)
                0x08004646                lib_fflush
 .text.vfprintf
                0x080046d6       0x30 NuttX/nuttx/libs/libc/libc.a(lib_vfprintf.o)
                0x080046d6                vfprintf
 .text.nxrmutex_destroy.isra.0
                0x08004706       0x14 NuttX/nuttx/libs/libc/libc.a(lib_libstream.o)
 .text.lib_stream_initialize
                0x0800471a       0x3e NuttX/nuttx/libs/libc/libc.a(lib_libstream.o)
                0x0800471a                lib_stream_initialize
 .text.lib_stream_release
                0x08004758       0x48 NuttX/nuttx/libs/libc/libc.a(lib_libstream.o)
                0x08004758                lib_stream_release
 .text.lib_stream_semtake
                0x080047a0       0x10 NuttX/nuttx/libs/libc/libc.a(lib_libstream.o)
                0x080047a0                lib_stream_semtake
 .text.lib_stream_semgive
                0x080047b0        0x4 NuttX/nuttx/libs/libc/libc.a(lib_libstream.o)
                0x080047b0                lib_stream_semgive
 .text.lib_sem_initialize
                0x080047b4       0x22 NuttX/nuttx/libs/libc/libc.a(lib_libfilesem.o)
                0x080047b4                lib_sem_initialize
 .text.lib_take_semaphore
                0x080047d6       0x40 NuttX/nuttx/libs/libc/libc.a(lib_libfilesem.o)
                0x080047d6                lib_take_semaphore
 .text.lib_give_semaphore
                0x08004816       0x32 NuttX/nuttx/libs/libc/libc.a(lib_libfilesem.o)
                0x08004816                lib_give_semaphore
 .text.stdoutstream_flush
                0x08004848        0x8 NuttX/nuttx/libs/libc/libc.a(lib_stdoutstream.o)
 .text.stdoutstream_putc
                0x08004850       0x26 NuttX/nuttx/libs/libc/libc.a(lib_stdoutstream.o)
 *fill*         0x08004876        0x2 ffecc2925d7d05c5
 .text.lib_stdoutstream
                0x08004878       0x34 NuttX/nuttx/libs/libc/libc.a(lib_stdoutstream.o)
                0x08004878                lib_stdoutstream
 .text.strcpy   0x080048ac       0x10 NuttX/nuttx/libs/libc/libc.a(lib_strcpy.o)
                0x080048ac                strcpy
 .text.strlcpy  0x080048bc       0x28 NuttX/nuttx/libs/libc/libc.a(lib_strlcpy.o)
                0x080048bc                strlcpy
 .text.strlen   0x080048e4       0x10 NuttX/nuttx/libs/libc/libc.a(lib_strlen.o)
                0x080048e4                strlen
 .text.strncpy  0x080048f4       0x24 NuttX/nuttx/libs/libc/libc.a(lib_strncpy.o)
                0x080048f4                strncpy
 .text.cfsetspeed
                0x08004918       0x38 NuttX/nuttx/libs/libc/libc.a(lib_cfspeed.o)
                0x08004918                cfsetspeed
 .text.cfgetspeed
                0x08004950        0x4 NuttX/nuttx/libs/libc/libc.a(lib_cfspeed.o)
                0x08004950                cfgetspeed
 .text.tls_get_info
                0x08004954       0x18 NuttX/nuttx/libs/libc/libc.a(tls_getinfo.o)
                0x08004954                tls_get_info
 .text.lib_cxx_initialize
                0x0800496c       0x44 NuttX/nuttx/libs/libc/libc.a(lib_cxx_initialize.o)
                0x0800496c                lib_cxx_initialize
 .text.lib_vsprintf
                0x080049b0       0x14 NuttX/nuttx/libs/libc/libc.a(lib_libvsprintf.o)
                0x080049b0                lib_vsprintf
 .text.vsprintf_internal.constprop.0
                0x080049c4      0x820 NuttX/nuttx/libs/libc/libc.a(lib_libvsprintf.o)
 .text.__ultoa_invert
                0x080051e4       0x5a NuttX/nuttx/libs/libc/libc.a(lib_ultoa_invert.o)
                0x080051e4                __ultoa_invert
 *fill*         0x0800523e        0x2 ffecc2925d7d05c5
 .text.__dtoa_engine
                0x08005240      0x184 NuttX/nuttx/libs/libc/libc.a(lib_dtoa_engine.o)
                0x08005240                __dtoa_engine
 .text.fputc    0x080053c4       0x3c NuttX/nuttx/libs/libc/libc.a(lib_fputc.o)
                0x080053c4                fputc
 .text.lib_noflush
                0x08005400        0x4 NuttX/nuttx/libs/libc/libc.a(lib_libnoflush.o)
                0x08005400                lib_noflush
 .text.strnlen  0x08005404       0x18 NuttX/nuttx/libs/libc/libc.a(lib_strnlen.o)
                0x08005404                strnlen
 .text.lib_fwrite
                0x0800541c       0xea NuttX/nuttx/libs/libc/libc.a(lib_libfwrite.o)
                0x0800541c                lib_fwrite
 .text.lib_rdflush
                0x08005506       0x56 NuttX/nuttx/libs/libc/libc.a(lib_rdflush.o)
                0x08005506                lib_rdflush
 .text.fseek    0x0800555c        0x4 NuttX/nuttx/libs/libc/libc.a(lib_fseek.o)
                0x0800555c                fseek
 .text.fseeko   0x08005560       0x3c NuttX/nuttx/libs/libc/libc.a(lib_fseeko.o)
                0x08005560                fseeko
 .text.lib_wrflush
                0x0800559c       0x16 NuttX/nuttx/libs/libc/libc.a(lib_wrflush.o)
                0x0800559c                lib_wrflush
 .text.cinit    0x080055b2       0x12 platforms/nuttx/src/bootloader/common/libbootloader.a(bl.c.obj)
                0x080055b2                cinit
 .text.cfini    0x080055c4        0xe platforms/nuttx/src/bootloader/common/libbootloader.a(bl.c.obj)
                0x080055c4                cfini
 *fill*         0x080055d2        0x2 ffecc2925d7d05c5
 .text.cin      0x080055d4       0x48 platforms/nuttx/src/bootloader/common/libbootloader.a(bl.c.obj)
                0x080055d4                cin
 .text.cin_wait
                0x0800561c       0x2c platforms/nuttx/src/bootloader/common/libbootloader.a(bl.c.obj)
 .text.wait_for_eoc
                0x08005648       0x10 platforms/nuttx/src/bootloader/common/libbootloader.a(bl.c.obj)
 .text.cin_word.constprop.0
                0x08005658       0x26 platforms/nuttx/src/bootloader/common/libbootloader.a(bl.c.obj)
 *fill*         0x0800567e        0x2 ffecc2925d7d05c5
 .text.cout     0x08005680       0x2c platforms/nuttx/src/bootloader/common/libbootloader.a(bl.c.obj)
                0x08005680                cout
 .text.jump_to_app
                0x080056ac       0x54 platforms/nuttx/src/bootloader/common/libbootloader.a(bl.c.obj)
                0x080056ac                jump_to_app
 .text.sys_tick_handler
                0x08005700       0x3c platforms/nuttx/src/bootloader/common/libbootloader.a(bl.c.obj)
                0x08005700                sys_tick_handler
 .text.delay    0x0800573c       0x10 platforms/nuttx/src/bootloader/common/libbootloader.a(bl.c.obj)
                0x0800573c                delay
 .text.bootloader
                0x0800574c      0x530 platforms/nuttx/src/bootloader/common/libbootloader.a(bl.c.obj)
                0x0800574c                bootloader
 .text.usb_cinit
                0x08005c7c       0x54 platforms/nuttx/src/bootloader/common/lib/libbootloader_lib.a(cdcacm.c.obj)
                0x08005c7c                usb_cinit
 .text.usb_cfini
                0x08005cd0       0x18 platforms/nuttx/src/bootloader/common/lib/libbootloader_lib.a(cdcacm.c.obj)
                0x08005cd0                usb_cfini
 .text.usb_cin  0x08005ce8       0x4c platforms/nuttx/src/bootloader/common/lib/libbootloader_lib.a(cdcacm.c.obj)
                0x08005ce8                usb_cin
 .text.usb_cout
                0x08005d34       0x10 platforms/nuttx/src/bootloader/common/lib/libbootloader_lib.a(cdcacm.c.obj)
                0x08005d34                usb_cout
 .text.uart_cinit
                0x08005d44       0x8c platforms/nuttx/src/bootloader/common/lib/libbootloader_lib.a(uart.c.obj)
                0x08005d44                uart_cinit
 .text.uart_cfini
                0x08005dd0       0x18 platforms/nuttx/src/bootloader/common/lib/libbootloader_lib.a(uart.c.obj)
                0x08005dd0                uart_cfini
 .text.uart_cin
                0x08005de8       0x2c platforms/nuttx/src/bootloader/common/lib/libbootloader_lib.a(uart.c.obj)
                0x08005de8                uart_cin
 .text.uart_cout
                0x08005e14       0x34 platforms/nuttx/src/bootloader/common/lib/libbootloader_lib.a(uart.c.obj)
                0x08005e14                uart_cout
 .text.boardctl
                0x08005e48       0x74 NuttX/nuttx/boards/libboards.a(boardctl.o)
                0x08005e48                boardctl
 .text.drivers_initialize
                0x08005ebc        0xe NuttX/nuttx/drivers/libdrivers.a(drivers_initialize.o)
                0x08005ebc                drivers_initialize
 .text.devnull_read
                0x08005eca        0x4 NuttX/nuttx/drivers/libdrivers.a(dev_null.o)
 .text.devnull_write
                0x08005ece        0x4 NuttX/nuttx/drivers/libdrivers.a(dev_null.o)
 .text.devnull_poll
                0x08005ed2       0x1c NuttX/nuttx/drivers/libdrivers.a(dev_null.o)
 *fill*         0x08005eee        0x2 ffecc2925d7d05c5
 .text.devnull_register
                0x08005ef0       0x18 NuttX/nuttx/drivers/libdrivers.a(dev_null.o)
                0x08005ef0                devnull_register
 .text.uart_putc
                0x08005f08       0x20 NuttX/nuttx/drivers/libdrivers.a(serial.o)
 .text.uart_putxmitchar
                0x08005f28       0xb0 NuttX/nuttx/drivers/libdrivers.a(serial.o)
 .text.uart_read
                0x08005fd8      0x15e NuttX/nuttx/drivers/libdrivers.a(serial.o)
 .text.uart_open
                0x08006136       0x96 NuttX/nuttx/drivers/libdrivers.a(serial.o)
 .text.uart_pollnotify
                0x080061cc       0x3e NuttX/nuttx/drivers/libdrivers.a(serial.o)
 .text.uart_poll
                0x0800620a       0xca NuttX/nuttx/drivers/libdrivers.a(serial.o)
 .text.uart_write
                0x080062d4      0x12c NuttX/nuttx/drivers/libdrivers.a(serial.o)
 .text.uart_tcdrain.isra.0
                0x08006400       0xc0 NuttX/nuttx/drivers/libdrivers.a(serial.o)
 .text.uart_register
                0x080064c0       0x90 NuttX/nuttx/drivers/libdrivers.a(serial.o)
                0x080064c0                uart_register
 .text.uart_datareceived
                0x08006550       0x20 NuttX/nuttx/drivers/libdrivers.a(serial.o)
                0x08006550                uart_datareceived
 .text.uart_datasent
                0x08006570       0x20 NuttX/nuttx/drivers/libdrivers.a(serial.o)
                0x08006570                uart_datasent
 .text.uart_ioctl
                0x08006590      0x1d2 NuttX/nuttx/drivers/libdrivers.a(serial.o)
 .text.uart_connected
                0x08006762       0x50 NuttX/nuttx/drivers/libdrivers.a(serial.o)
                0x08006762                uart_connected
 .text.uart_reset_sem
                0x080067b2       0x38 NuttX/nuttx/drivers/libdrivers.a(serial.o)
                0x080067b2                uart_reset_sem
 .text.uart_close
                0x080067ea       0x80 NuttX/nuttx/drivers/libdrivers.a(serial.o)
 .text.uart_check_special
                0x0800686a       0x32 NuttX/nuttx/drivers/libdrivers.a(serial.o)
                0x0800686a                uart_check_special
 .text.uart_xmitchars
                0x0800689c       0x6c NuttX/nuttx/drivers/libdrivers.a(serial_io.o)
                0x0800689c                uart_xmitchars
 .text.uart_recvchars
                0x08006908       0xa8 NuttX/nuttx/drivers/libdrivers.a(serial_io.o)
                0x08006908                uart_recvchars
 .text.syslog_flush
                0x080069b0       0x18 NuttX/nuttx/drivers/libdrivers.a(syslog_flush.o)
                0x080069b0                syslog_flush
 .text.syslog_initialize
                0x080069c8        0x4 NuttX/nuttx/drivers/libdrivers.a(syslog_initialize.o)
                0x080069c8                syslog_initialize
 .text.cdcacm_ep0incomplete
                0x080069cc        0x2 NuttX/nuttx/drivers/libdrivers.a(cdcacm.o)
 .text.cdcuart_setup
                0x080069ce       0x12 NuttX/nuttx/drivers/libdrivers.a(cdcacm.o)
 .text.cdcuart_shutdown
                0x080069e0        0x2 NuttX/nuttx/drivers/libdrivers.a(cdcacm.o)
 .text.cdcuart_attach
                0x080069e2        0x4 NuttX/nuttx/drivers/libdrivers.a(cdcacm.o)
 .text.cdcuart_txempty
                0x080069e6       0x10 NuttX/nuttx/drivers/libdrivers.a(cdcacm.o)
 .text.cdcacm_allocreq
                0x080069f6       0x2c NuttX/nuttx/drivers/libdrivers.a(cdcacm.o)
 .text.cdcacm_resume
                0x08006a22       0x10 NuttX/nuttx/drivers/libdrivers.a(cdcacm.o)
 .text.cdcacm_suspend
                0x08006a32        0x8 NuttX/nuttx/drivers/libdrivers.a(cdcacm.o)
 .text.cdcacm_serialstate
                0x08006a3a       0x7e NuttX/nuttx/drivers/libdrivers.a(cdcacm.o)
 .text.cdcacm_freereq
                0x08006ab8       0x22 NuttX/nuttx/drivers/libdrivers.a(cdcacm.o)
 .text.cdcacm_resetconfig
                0x08006ada       0x32 NuttX/nuttx/drivers/libdrivers.a(cdcacm.o)
 .text.cdcacm_disconnect
                0x08006b0c       0x48 NuttX/nuttx/drivers/libdrivers.a(cdcacm.o)
 .text.cdcacm_unbind
                0x08006b54       0xc2 NuttX/nuttx/drivers/libdrivers.a(cdcacm.o)
 *fill*         0x08006c16        0x2 ffecc2925d7d05c5
 .text.cdcacm_bind
                0x08006c18      0x124 NuttX/nuttx/drivers/libdrivers.a(cdcacm.o)
 .text.cdcacm_epconfigure.constprop.0
                0x08006d3c       0x22 NuttX/nuttx/drivers/libdrivers.a(cdcacm.o)
 *fill*         0x08006d5e        0x2 ffecc2925d7d05c5
 .text.cdcacm_setconfig
                0x08006d60       0xb0 NuttX/nuttx/drivers/libdrivers.a(cdcacm.o)
 .text.cdcacm_setup
                0x08006e10      0x1d0 NuttX/nuttx/drivers/libdrivers.a(cdcacm.o)
 .text.cdcacm_requeue_rdrequest.isra.0
                0x08006fe0       0x12 NuttX/nuttx/drivers/libdrivers.a(cdcacm.o)
 *fill*         0x08006ff2        0x2 ffecc2925d7d05c5
 .text.cdcacm_release_rxpending.isra.0
                0x08006ff4       0xf0 NuttX/nuttx/drivers/libdrivers.a(cdcacm.o)
 .text.cdcuart_ioctl
                0x080070e4      0x22e NuttX/nuttx/drivers/libdrivers.a(cdcacm.o)
 .text.cdcuart_rxint
                0x08007312       0x3a NuttX/nuttx/drivers/libdrivers.a(cdcacm.o)
 .text.cdcuart_rxflowcontrol
                0x0800734c       0x6c NuttX/nuttx/drivers/libdrivers.a(cdcacm.o)
 .text.cdcacm_rxtimeout
                0x080073b8        0x4 NuttX/nuttx/drivers/libdrivers.a(cdcacm.o)
 .text.cdcacm_rdcomplete
                0x080073bc       0x56 NuttX/nuttx/drivers/libdrivers.a(cdcacm.o)
 .text.cdcacm_sndpacket.isra.0
                0x08007412       0xfe NuttX/nuttx/drivers/libdrivers.a(cdcacm.o)
 .text.cdcuart_txint
                0x08007510       0x16 NuttX/nuttx/drivers/libdrivers.a(cdcacm.o)
 .text.cdcacm_wrcomplete
                0x08007526       0x48 NuttX/nuttx/drivers/libdrivers.a(cdcacm.o)
 .text.cdcuart_detach
                0x0800756e        0x2 NuttX/nuttx/drivers/libdrivers.a(cdcacm.o)
 .text.cdcacm_initialize
                0x08007570       0xfc NuttX/nuttx/drivers/libdrivers.a(cdcacm.o)
                0x08007570                cdcacm_initialize
 .text.cdcacm_uninitialize
                0x0800766c       0x38 NuttX/nuttx/drivers/libdrivers.a(cdcacm.o)
                0x0800766c                cdcacm_uninitialize
 .text.cdcacm_mkstrdesc
                0x080076a4       0x78 NuttX/nuttx/drivers/libdrivers.a(cdcacm_desc.o)
                0x080076a4                cdcacm_mkstrdesc
 .text.cdcacm_getdevdesc
                0x0800771c        0x8 NuttX/nuttx/drivers/libdrivers.a(cdcacm_desc.o)
                0x0800771c                cdcacm_getdevdesc
 .text.cdcacm_copy_epdesc
                0x08007724       0x6a NuttX/nuttx/drivers/libdrivers.a(cdcacm_desc.o)
                0x08007724                cdcacm_copy_epdesc
 .text.cdcacm_mkcfgdesc
                0x0800778e      0x122 NuttX/nuttx/drivers/libdrivers.a(cdcacm_desc.o)
                0x0800778e                cdcacm_mkcfgdesc
 .text.syslog_default_write
                0x080078b0       0x10 NuttX/nuttx/drivers/libdrivers.a(syslog_channel.o)
 .text.syslog_default_putc
                0x080078c0        0x6 NuttX/nuttx/drivers/libdrivers.a(syslog_channel.o)
 .text.fs_initialize
                0x080078c6        0x4 NuttX/nuttx/fs/libfs.a(fs_initialize.o)
                0x080078c6                fs_initialize
 .text.files_extend
                0x080078ca       0x5e NuttX/nuttx/fs/libfs.a(fs_files.o)
 .text.files_initlist
                0x08007928        0x8 NuttX/nuttx/fs/libfs.a(fs_files.o)
                0x08007928                files_initlist
 .text.files_releaselist
                0x08007930       0x3a NuttX/nuttx/fs/libfs.a(fs_files.o)
                0x08007930                files_releaselist
 .text.files_allocate
                0x0800796a       0xfa NuttX/nuttx/fs/libfs.a(fs_files.o)
                0x0800796a                files_allocate
 .text.fs_getfilep
                0x08007a64       0x5c NuttX/nuttx/fs/libfs.a(fs_files.o)
                0x08007a64                fs_getfilep
 .text.nx_close
                0x08007ac0       0x74 NuttX/nuttx/fs/libfs.a(fs_files.o)
                0x08007ac0                nx_close
 .text.close    0x08007b34       0x1a NuttX/nuttx/fs/libfs.a(fs_files.o)
                0x08007b34                close
 .text.inode_initialize
                0x08007b4e        0x4 NuttX/nuttx/fs/libfs.a(fs_inode.o)
                0x08007b4e                inode_initialize
 *fill*         0x08007b52        0x2 ffecc2925d7d05c5
 .text.inode_semtake
                0x08007b54       0x44 NuttX/nuttx/fs/libfs.a(fs_inode.o)
                0x08007b54                inode_semtake
 .text.inode_semgive
                0x08007b98       0x34 NuttX/nuttx/fs/libfs.a(fs_inode.o)
                0x08007b98                inode_semgive
 .text.inode_alloc.isra.0
                0x08007bcc       0x3c NuttX/nuttx/fs/libfs.a(fs_inodereserve.o)
 .text.inode_root_reserve
                0x08007c08       0x18 NuttX/nuttx/fs/libfs.a(fs_inodereserve.o)
                0x08007c08                inode_root_reserve
 .text.inode_reserve
                0x08007c20       0xa4 NuttX/nuttx/fs/libfs.a(fs_inodereserve.o)
                0x08007c20                inode_reserve
 .text.inode_nextname
                0x08007cc4       0x18 NuttX/nuttx/fs/libfs.a(fs_inodesearch.o)
                0x08007cc4                inode_nextname
 .text.inode_search
                0x08007cdc       0xc4 NuttX/nuttx/fs/libfs.a(fs_inodesearch.o)
                0x08007cdc                inode_search
 .text.file_close
                0x08007da0       0x2c NuttX/nuttx/fs/libfs.a(fs_close.o)
                0x08007da0                file_close
 .text.file_seek
                0x08007dcc       0x40 NuttX/nuttx/fs/libfs.a(fs_lseek.o)
                0x08007dcc                file_seek
 .text.nx_seek  0x08007e0c       0x1e NuttX/nuttx/fs/libfs.a(fs_lseek.o)
                0x08007e0c                nx_seek
 .text.lseek    0x08007e2a       0x1a NuttX/nuttx/fs/libfs.a(fs_lseek.o)
                0x08007e2a                lseek
 .text.inode_checkflags
                0x08007e44       0x36 NuttX/nuttx/fs/libfs.a(fs_open.o)
                0x08007e44                inode_checkflags
 .text.file_vopen
                0x08007e7a       0xce NuttX/nuttx/fs/libfs.a(fs_open.o)
 .text.nx_vopen
                0x08007f48       0x40 NuttX/nuttx/fs/libfs.a(fs_open.o)
 .text.open     0x08007f88       0x2c NuttX/nuttx/fs/libfs.a(fs_open.o)
                0x08007f88                open
 .text.file_read
                0x08007fb4       0x2a NuttX/nuttx/fs/libfs.a(fs_read.o)
                0x08007fb4                file_read
 .text.nx_read  0x08007fde       0x1e NuttX/nuttx/fs/libfs.a(fs_read.o)
                0x08007fde                nx_read
 .text.read     0x08007ffc       0x1a NuttX/nuttx/fs/libfs.a(fs_read.o)
                0x08007ffc                read
 .text.file_write
                0x08008016       0x2a NuttX/nuttx/fs/libfs.a(fs_write.o)
                0x08008016                file_write
 .text.nx_write
                0x08008040       0x26 NuttX/nuttx/fs/libfs.a(fs_write.o)
                0x08008040                nx_write
 .text.write    0x08008066       0x1a NuttX/nuttx/fs/libfs.a(fs_write.o)
                0x08008066                write
 .text.dir_ioctl
                0x08008080       0x1c NuttX/nuttx/fs/libfs.a(fs_dir.o)
 .text.dir_read
                0x0800809c       0xbe NuttX/nuttx/fs/libfs.a(fs_dir.o)
 .text.dir_close
                0x0800815a       0x44 NuttX/nuttx/fs/libfs.a(fs_dir.o)
 .text.dir_seek
                0x0800819e       0xae NuttX/nuttx/fs/libfs.a(fs_dir.o)
 .text.dir_allocate
                0x0800824c       0x70 NuttX/nuttx/fs/libfs.a(fs_dir.o)
                0x0800824c                dir_allocate
 .text.dir_open
                0x080082bc        0x8 NuttX/nuttx/fs/libfs.a(fs_dir.o)
 .text.fs_fdopen
                0x080082c4       0xd0 NuttX/nuttx/fs/libfs.a(fs_fdopen.o)
                0x080082c4                fs_fdopen
 .text.register_driver
                0x08008394       0x42 NuttX/nuttx/fs/libfs.a(fs_registerdriver.o)
                0x08008394                register_driver
 .text.unregister_driver
                0x080083d6       0x1c NuttX/nuttx/fs/libfs.a(fs_unregisterdriver.o)
                0x080083d6                unregister_driver
 .text.inode_addref
                0x080083f2       0x20 NuttX/nuttx/fs/libfs.a(fs_inodeaddref.o)
                0x080083f2                inode_addref
 .text.inode_find
                0x08008412       0x26 NuttX/nuttx/fs/libfs.a(fs_inodefind.o)
                0x08008412                inode_find
 .text.inode_release
                0x08008438       0x3c NuttX/nuttx/fs/libfs.a(fs_inoderelease.o)
                0x08008438                inode_release
 .text.inode_unlink
                0x08008474       0x4a NuttX/nuttx/fs/libfs.a(fs_inoderemove.o)
                0x08008474                inode_unlink
 .text.inode_remove
                0x080084be       0x2a NuttX/nuttx/fs/libfs.a(fs_inoderemove.o)
                0x080084be                inode_remove
 .text.inode_free
                0x080084e8       0x1e NuttX/nuttx/fs/libfs.a(fs_inodefree.o)
                0x080084e8                inode_free
 .text.clock_initialize
                0x08008506        0x4 NuttX/nuttx/sched/libsched.a(clock_initialize.o)
                0x08008506                clock_initialize
 *fill*         0x0800850a        0x2 ffecc2925d7d05c5
 .text.clock_timer
                0x0800850c       0x10 NuttX/nuttx/sched/libsched.a(clock_initialize.o)
                0x0800850c                clock_timer
 .text.nxsched_get_files
                0x0800851c       0x10 NuttX/nuttx/sched/libsched.a(sched_getfiles.o)
                0x0800851c                nxsched_get_files
 .text.nxsched_add_readytorun
                0x0800852c       0x48 NuttX/nuttx/sched/libsched.a(sched_addreadytorun.o)
                0x0800852c                nxsched_add_readytorun
 .text.nxsched_remove_readytorun
                0x08008574       0x28 NuttX/nuttx/sched/libsched.a(sched_removereadytorun.o)
                0x08008574                nxsched_remove_readytorun
 .text.nxsched_merge_pending
                0x0800859c       0x58 NuttX/nuttx/sched/libsched.a(sched_mergepending.o)
                0x0800859c                nxsched_merge_pending
 .text.nxsched_get_streams
                0x080085f4       0x10 NuttX/nuttx/sched/libsched.a(sched_getstreams.o)
                0x080085f4                nxsched_get_streams
 .text.sched_idletask
                0x08008604       0x18 NuttX/nuttx/sched/libsched.a(sched_idletask.o)
                0x08008604                sched_idletask
 .text.nxsched_self
                0x0800861c        0xc NuttX/nuttx/sched/libsched.a(sched_self.o)
                0x0800861c                nxsched_self
 .text.nxsched_get_stackinfo
                0x08008628       0x44 NuttX/nuttx/sched/libsched.a(sched_get_stackinfo.o)
                0x08008628                nxsched_get_stackinfo
 .text.nxsem_wait
                0x0800866c       0x64 NuttX/nuttx/sched/libsched.a(sem_wait.o)
                0x0800866c                nxsem_wait
 .text.nxsem_wait_uninterruptible
                0x080086d0       0x10 NuttX/nuttx/sched/libsched.a(sem_wait.o)
                0x080086d0                nxsem_wait_uninterruptible
 .text.sem_wait
                0x080086e0       0x1c NuttX/nuttx/sched/libsched.a(sem_wait.o)
                0x080086e0                sem_wait
 .text.nxsem_post
                0x080086fc       0x7c NuttX/nuttx/sched/libsched.a(sem_post.o)
                0x080086fc                nxsem_post
 .text.sem_post
                0x08008778       0x1a NuttX/nuttx/sched/libsched.a(sem_post.o)
                0x08008778                sem_post
 .text.nxsem_reset
                0x08008792       0x4e NuttX/nuttx/sched/libsched.a(sem_reset.o)
                0x08008792                nxsem_reset
 .text.nxsig_kill
                0x080087e0       0x42 NuttX/nuttx/sched/libsched.a(sig_kill.o)
                0x080087e0                nxsig_kill
 *fill*         0x08008822        0x2 ffecc2925d7d05c5
 .text.nxsig_usleep
                0x08008824       0x2c NuttX/nuttx/sched/libsched.a(sig_usleep.o)
                0x08008824                nxsig_usleep
 .text.nxtask_exit
                0x08008850       0x48 NuttX/nuttx/sched/libsched.a(task_exit.o)
                0x08008850                nxtask_exit
 .text.getpid   0x08008898       0x1c NuttX/nuttx/sched/libsched.a(task_getpid.o)
                0x08008898                getpid
 .text.nxtask_terminate
                0x080088b4       0x5c NuttX/nuttx/sched/libsched.a(task_terminate.o)
                0x080088b4                nxtask_terminate
 .text.gettid   0x08008910       0x1c NuttX/nuttx/sched/libsched.a(task_gettid.o)
                0x08008910                gettid
 .text.wd_start
                0x0800892c       0xb8 NuttX/nuttx/sched/libsched.a(wd_start.o)
                0x0800892c                wd_start
 .text.wd_timer
                0x080089e4       0x3c NuttX/nuttx/sched/libsched.a(wd_start.o)
                0x080089e4                wd_timer
 .text.nxsig_nanosleep
                0x08008a20       0x94 NuttX/nuttx/sched/libsched.a(sig_nanosleep.o)
                0x08008a20                nxsig_nanosleep
 .text.nxsig_timeout
                0x08008ab4       0x1e NuttX/nuttx/sched/libsched.a(sig_timedwait.o)
 *fill*         0x08008ad2        0x2 ffecc2925d7d05c5
 .text.nxsig_timedwait
                0x08008ad4       0xfc NuttX/nuttx/sched/libsched.a(sig_timedwait.o)
                0x08008ad4                nxsig_timedwait
 .text.stm32_timerisr
                0x08008bd0        0xa NuttX/nuttx/arch/arm/src/libarch.a(stm32_timerisr.o)
 *fill*         0x08008bda        0x2 ffecc2925d7d05c5
 .text.up_timer_initialize
                0x08008bdc       0x2c NuttX/nuttx/arch/arm/src/libarch.a(stm32_timerisr.o)
                0x08008bdc                up_timer_initialize
 .text.up_nputs
                0x08008c08       0x18 NuttX/nuttx/arch/arm/src/libarch.a(arm_nputs.o)
                0x08008c08                up_nputs
 .text.realloc  0x08008c20       0x10 NuttX/nuttx/mm/libmm.a(umm_realloc.o)
                0x08008c20                realloc
 .text.mm_realloc
                0x08008c30      0x1a4 NuttX/nuttx/mm/libmm.a(mm_realloc.o)
                0x08008c30                mm_realloc
 .text.mm_shrinkchunk
                0x08008dd4       0x64 NuttX/nuttx/mm/libmm.a(mm_shrinkchunk.o)
                0x08008dd4                mm_shrinkchunk
 .text.getumask
                0x08008e38        0xa NuttX/nuttx/libs/libc/libc.a(lib_umask.o)
                0x08008e38                getumask
 .text.sq_addfirst
                0x08008e42        0xc NuttX/nuttx/libs/libc/libc.a(sq_addfirst.o)
                0x08008e42                sq_addfirst
 .text.sq_addafter
                0x08008e4e       0x1c NuttX/nuttx/libs/libc/libc.a(sq_addafter.o)
                0x08008e4e                sq_addafter
 *fill*         0x08008e6a        0x2 ffecc2925d7d05c5
 .text.clock_ticks2time
                0x08008e6c       0x1c NuttX/nuttx/libs/libc/libc.a(clock_ticks2time.o)
                0x08008e6c                clock_ticks2time
 .text.clock_time2ticks
                0x08008e88       0x38 NuttX/nuttx/libs/libc/libc.a(clock_time2ticks.o)
                0x08008e88                clock_time2ticks
 .text.nxsem_set_protocol
                0x08008ec0       0x14 NuttX/nuttx/libs/libc/libc.a(sem_setprotocol.o)
                0x08008ec0                nxsem_set_protocol
 .text.asprintf
                0x08008ed4       0x1a NuttX/nuttx/libs/libc/libc.a(lib_asprintf.o)
                0x08008ed4                asprintf
 .text.snprintf
                0x08008eee       0x30 NuttX/nuttx/libs/libc/libc.a(lib_snprintf.o)
                0x08008eee                snprintf
 .text.vasprintf
                0x08008f1e       0x4a NuttX/nuttx/libs/libc/libc.a(lib_vasprintf.o)
                0x08008f1e                vasprintf
 .text.atol     0x08008f68        0x8 NuttX/nuttx/libs/libc/libc.a(lib_atol.o)
                0x08008f68                atol
 .text.strtol   0x08008f70       0x74 NuttX/nuttx/libs/libc/libc.a(lib_strtol.o)
                0x08008f70                strtol
 .text.strtoul  0x08008fe4       0xba NuttX/nuttx/libs/libc/libc.a(lib_strtoul.o)
                0x08008fe4                strtoul
 .text.lib_checkbase
                0x0800909e       0x5e NuttX/nuttx/libs/libc/libc.a(lib_checkbase.o)
                0x0800909e                lib_checkbase
 .text.memoutstream_puts
                0x080090fc       0x2e NuttX/nuttx/libs/libc/libc.a(lib_memoutstream.o)
 .text.memoutstream_putc
                0x0800912a       0x16 NuttX/nuttx/libs/libc/libc.a(lib_memoutstream.o)
 .text.lib_memoutstream
                0x08009140       0x28 NuttX/nuttx/libs/libc/libc.a(lib_memoutstream.o)
                0x08009140                lib_memoutstream
 .text.nulloutstream_putc
                0x08009168        0x8 NuttX/nuttx/libs/libc/libc.a(lib_nulloutstream.o)
 .text.lib_nulloutstream
                0x08009170       0x18 NuttX/nuttx/libs/libc/libc.a(lib_nulloutstream.o)
                0x08009170                lib_nulloutstream
 .text.lib_isbasedigit
                0x08009188       0x4c NuttX/nuttx/libs/libc/libc.a(lib_isbasedigit.o)
                0x08009188                lib_isbasedigit
 .text.lib_skipspace
                0x080091d4       0x18 NuttX/nuttx/libs/libc/libc.a(lib_skipspace.o)
                0x080091d4                lib_skipspace
 .text.strdup   0x080091ec       0x1c NuttX/nuttx/libs/libc/libc.a(lib_strdup.o)
                0x080091ec                strdup
 .text.strtok   0x08009208        0xc NuttX/nuttx/libs/libc/libc.a(lib_strtok.o)
                0x08009208                strtok
 .text.strtok_r
                0x08009214       0x50 NuttX/nuttx/libs/libc/libc.a(lib_strtokr.o)
                0x08009214                strtok_r
 .text.strchr   0x08009264       0x14 NuttX/nuttx/libs/libc/libc.a(lib_strchr.o)
                0x08009264                strchr
 .text.tcgetattr
                0x08009278        0xa NuttX/nuttx/libs/libc/libc.a(lib_tcgetattr.o)
                0x08009278                tcgetattr
 .text.tcsetattr
                0x08009282       0x2a NuttX/nuttx/libs/libc/libc.a(lib_tcsetattr.o)
                0x08009282                tcsetattr
 .text.task_get_info
                0x080092ac        0xa NuttX/nuttx/libs/libc/libc.a(task_getinfo.o)
                0x080092ac                task_get_info
 .text.isspace  0x080092b6       0x14 NuttX/nuttx/libs/libc/libc.a(lib_isspace.o)
                0x080092b6                isspace
 .text.tcflush  0x080092ca        0xa NuttX/nuttx/libs/libc/libc.a(lib_tcflush.o)
                0x080092ca                tcflush
 .text.tcdrain  0x080092d4        0xa NuttX/nuttx/libs/libc/libc.a(lib_tcdrain.o)
                0x080092d4                tcdrain
 .text.file_vioctl
                0x080092de       0xc2 NuttX/nuttx/fs/libfs.a(fs_ioctl.o)
                0x080092de                file_vioctl
 .text.ioctl    0x080093a0       0x3c NuttX/nuttx/fs/libfs.a(fs_ioctl.o)
                0x080093a0                ioctl
 .text.inode_getpath
                0x080093dc       0x48 NuttX/nuttx/fs/libfs.a(fs_inodegetpath.o)
                0x080093dc                inode_getpath
 .text.nxsched_process_timer
                0x08009424       0x1c NuttX/nuttx/sched/libsched.a(sched_processtimer.o)
                0x08009424                nxsched_process_timer
 .text.strcat   0x08009440       0x20 NuttX/nuttx/libs/libc/libc.a(lib_strcat.o)
                0x08009440                strcat
 .text          0x08009460       0xa0 /opt/homebrew/Cellar/arm-gcc-bin@13/13.2.rel1/bin/../lib/gcc/arm-none-eabi/13.2.1/thumb/v7e-m+dp/hard/libgcc.a(_aeabi_ldivmod.o)
                0x08009460                __aeabi_ldivmod
 .text          0x08009500       0x30 /opt/homebrew/Cellar/arm-gcc-bin@13/13.2.rel1/bin/../lib/gcc/arm-none-eabi/13.2.1/thumb/v7e-m+dp/hard/libgcc.a(_aeabi_uldivmod.o)
                0x08009500                __aeabi_uldivmod
 .text.__fixunsdfdi
                0x08009530       0x40 /opt/homebrew/Cellar/arm-gcc-bin@13/13.2.rel1/bin/../lib/gcc/arm-none-eabi/13.2.1/thumb/v7e-m+dp/hard/libgcc.a(_fixunsdfdi.o)
                0x08009530                __aeabi_d2ulz
                0x08009530                __fixunsdfdi
 .text.__udivmoddi4
                0x08009570      0x2bc /opt/homebrew/Cellar/arm-gcc-bin@13/13.2.rel1/bin/../lib/gcc/arm-none-eabi/13.2.1/thumb/v7e-m+dp/hard/libgcc.a(_udivmoddi4.o)
                0x08009570                __udivmoddi4
 .text          0x0800982c        0x4 /opt/homebrew/Cellar/arm-gcc-bin@13/13.2.rel1/bin/../lib/gcc/arm-none-eabi/13.2.1/thumb/v7e-m+dp/hard/libgcc.a(_dvmd_tls.o)
                0x0800982c                __aeabi_ldiv0
                0x0800982c                __aeabi_idiv0
 .text.board_get_devices
                0x08009830        0x4 platforms/nuttx/src/bootloader/stm/stm32h7/arch_bootloader/libarch_bootloader.a(main.c.obj)
                0x08009830                board_get_devices
 .text.board_deinit
                0x08009834       0x30 platforms/nuttx/src/bootloader/stm/stm32h7/arch_bootloader/libarch_bootloader.a(main.c.obj)
                0x08009834                board_deinit
 .text.arch_systic_init
                0x08009864       0x28 platforms/nuttx/src/bootloader/stm/stm32h7/arch_bootloader/libarch_bootloader.a(main.c.obj)
                0x08009864                arch_systic_init
 .text.arch_systic_deinit
                0x0800988c       0x1a platforms/nuttx/src/bootloader/stm/stm32h7/arch_bootloader/libarch_bootloader.a(main.c.obj)
                0x0800988c                arch_systic_deinit
 *fill*         0x080098a6        0x2 ffecc2925d7d05c5
 .text.clock_deinit
                0x080098a8       0x48 platforms/nuttx/src/bootloader/stm/stm32h7/arch_bootloader/libarch_bootloader.a(main.c.obj)
                0x080098a8                clock_deinit
 .text.arch_flash_lock
                0x080098f0       0x16 platforms/nuttx/src/bootloader/stm/stm32h7/arch_bootloader/libarch_bootloader.a(main.c.obj)
                0x080098f0                arch_flash_lock
 .text.arch_flash_unlock
                0x08009906       0x1a platforms/nuttx/src/bootloader/stm/stm32h7/arch_bootloader/libarch_bootloader.a(main.c.obj)
                0x08009906                arch_flash_unlock
 .text.arch_flash_write
                0x08009920        0x4 platforms/nuttx/src/bootloader/stm/stm32h7/arch_bootloader/libarch_bootloader.a(main.c.obj)
                0x08009920                arch_flash_write
 .text.arch_setvtor
                0x08009924        0xa platforms/nuttx/src/bootloader/stm/stm32h7/arch_bootloader/libarch_bootloader.a(main.c.obj)
                0x08009924                arch_setvtor
 .text.flash_func_sector_size
                0x0800992e        0xc platforms/nuttx/src/bootloader/stm/stm32h7/arch_bootloader/libarch_bootloader.a(main.c.obj)
                0x0800992e                flash_func_sector_size
 .text.flash_func_erase_sector
                0x0800993a       0x20 platforms/nuttx/src/bootloader/stm/stm32h7/arch_bootloader/libarch_bootloader.a(main.c.obj)
                0x0800993a                flash_func_erase_sector
 .text.flash_func_write_word
                0x0800995a        0xc platforms/nuttx/src/bootloader/stm/stm32h7/arch_bootloader/libarch_bootloader.a(main.c.obj)
                0x0800995a                flash_func_write_word
 .text.flash_func_read_word
                0x08009966       0x14 platforms/nuttx/src/bootloader/stm/stm32h7/arch_bootloader/libarch_bootloader.a(main.c.obj)
                0x08009966                flash_func_read_word
 .text.flash_func_read_otp
                0x0800997a        0x4 platforms/nuttx/src/bootloader/stm/stm32h7/arch_bootloader/libarch_bootloader.a(main.c.obj)
                0x0800997a                flash_func_read_otp
 *fill*         0x0800997e        0x2 ffecc2925d7d05c5
 .text.get_mcu_id
                0x08009980        0xc platforms/nuttx/src/bootloader/stm/stm32h7/arch_bootloader/libarch_bootloader.a(main.c.obj)
                0x08009980                get_mcu_id
 .text.get_mcu_desc
                0x0800998c       0x94 platforms/nuttx/src/bootloader/stm/stm32h7/arch_bootloader/libarch_bootloader.a(main.c.obj)
                0x0800998c                get_mcu_desc
 .text.flash_func_read_sn
                0x08009a20        0xe platforms/nuttx/src/bootloader/stm/stm32h7/arch_bootloader/libarch_bootloader.a(main.c.obj)
                0x08009a20                flash_func_read_sn
 *fill*         0x08009a2e        0x2 ffecc2925d7d05c5
 .text.led_on   0x08009a30       0x20 platforms/nuttx/src/bootloader/stm/stm32h7/arch_bootloader/libarch_bootloader.a(main.c.obj)
                0x08009a30                led_on
 .text.led_off  0x08009a50       0x20 platforms/nuttx/src/bootloader/stm/stm32h7/arch_bootloader/libarch_bootloader.a(main.c.obj)
                0x08009a50                led_off
 .text.led_toggle
                0x08009a70       0x3c platforms/nuttx/src/bootloader/stm/stm32h7/arch_bootloader/libarch_bootloader.a(main.c.obj)
                0x08009a70                led_toggle
 .text.arch_do_jump
                0x08009aac        0xc platforms/nuttx/src/bootloader/stm/stm32h7/arch_bootloader/libarch_bootloader.a(main.c.obj)
                0x08009aac                arch_do_jump
 .text.bootloader_main
                0x08009ab8      0x104 platforms/nuttx/src/bootloader/stm/stm32h7/arch_bootloader/libarch_bootloader.a(main.c.obj)
                0x08009ab8                bootloader_main
 .text.systick_set_reload
                0x08009bbc       0x18 platforms/nuttx/src/bootloader/stm/stm32h7/arch_bootloader/libarch_bootloader.a(systick.c.obj)
                0x08009bbc                systick_set_reload
 .text.systick_set_clocksource
                0x08009bd4       0x20 platforms/nuttx/src/bootloader/stm/stm32h7/arch_bootloader/libarch_bootloader.a(systick.c.obj)
                0x08009bd4                systick_set_clocksource
 .text.systick_counter_enable
                0x08009bf4       0x10 platforms/nuttx/src/bootloader/stm/stm32h7/arch_bootloader/libarch_bootloader.a(systick.c.obj)
                0x08009bf4                systick_counter_enable
 .text.systick_counter_disable
                0x08009c04       0x1c platforms/nuttx/src/bootloader/stm/stm32h7/arch_bootloader/libarch_bootloader.a(systick.c.obj)
                0x08009c04                systick_counter_disable
 .text.systick_interrupt_enable
                0x08009c20       0x10 platforms/nuttx/src/bootloader/stm/stm32h7/arch_bootloader/libarch_bootloader.a(systick.c.obj)
                0x08009c20                systick_interrupt_enable
 .text.systick_interrupt_disable
                0x08009c30       0x10 platforms/nuttx/src/bootloader/stm/stm32h7/arch_bootloader/libarch_bootloader.a(systick.c.obj)
                0x08009c30                systick_interrupt_disable
 .text.board_configure_reset
                0x08009c40       0x40 platforms/nuttx/src/px4/stm/stm32h7/board_reset/libarch_board_reset.a(board_reset.cpp.obj)
                0x08009c40                board_configure_reset
 .text.board_reset
                0x08009c80       0x18 platforms/nuttx/src/px4/stm/stm32h7/board_reset/libarch_board_reset.a(board_reset.cpp.obj)
                0x08009c80                board_reset
 .text.stm32h7_unlock_flash
                0x08009c98       0x24 NuttX/nuttx/arch/arm/src/libarch.a(stm32_flash.o)
 .text.stm32h7_flash_bank
                0x08009cbc       0x34 NuttX/nuttx/arch/arm/src/libarch.a(stm32_flash.o)
 .text.stm32h7_flash_modifyreg32
                0x08009cf0       0x14 NuttX/nuttx/arch/arm/src/libarch.a(stm32_flash.o)
 .text.stm32h7_lock_flash
                0x08009d04        0xa NuttX/nuttx/arch/arm/src/libarch.a(stm32_flash.o)
 *fill*         0x08009d0e        0x2 ffecc2925d7d05c5
 .text.stm32h7_wait_for_last_operation
                0x08009d10       0x28 NuttX/nuttx/arch/arm/src/libarch.a(stm32_flash.o)
 .text.stm32h7_flash_unlock
                0x08009d38       0x26 NuttX/nuttx/arch/arm/src/libarch.a(stm32_flash.o)
                0x08009d38                stm32h7_flash_unlock
 .text.stm32h7_flash_lock
                0x08009d5e       0x28 NuttX/nuttx/arch/arm/src/libarch.a(stm32_flash.o)
                0x08009d5e                stm32h7_flash_lock
 .text.up_progmem_getaddress
                0x08009d86       0x26 NuttX/nuttx/arch/arm/src/libarch.a(stm32_flash.o)
                0x08009d86                up_progmem_getaddress
 .text.up_progmem_ispageerased
                0x08009dac       0x2a NuttX/nuttx/arch/arm/src/libarch.a(stm32_flash.o)
                0x08009dac                up_progmem_ispageerased
 *fill*         0x08009dd6        0x2 ffecc2925d7d05c5
 .text.up_progmem_eraseblock
                0x08009dd8       0xe4 NuttX/nuttx/arch/arm/src/libarch.a(stm32_flash.o)
                0x08009dd8                up_progmem_eraseblock
 .text.up_progmem_write
                0x08009ebc      0x1a0 NuttX/nuttx/arch/arm/src/libarch.a(stm32_flash.o)
                0x08009ebc                up_progmem_write
 .text.up_systemreset
                0x0800a05c       0x20 NuttX/nuttx/arch/arm/src/libarch.a(arm_systemreset.o)
                0x0800a05c                up_systemreset
 .text.fcl_reset
                0x0800a07c        0x8 platforms/nuttx/src/bootloader/common/lib/libbootloader_lib.a(flash_cache.c.obj)
 .text.fc_reset
                0x0800a084       0x20 platforms/nuttx/src/bootloader/common/lib/libbootloader_lib.a(flash_cache.c.obj)
                0x0800a084                fc_reset
 .text.fc_flush
                0x0800a0a4       0x16 platforms/nuttx/src/bootloader/common/lib/libbootloader_lib.a(flash_cache.c.obj)
                0x0800a0a4                fc_flush
 *fill*         0x0800a0ba        0x2 ffecc2925d7d05c5
 .text.fc_write
                0x0800a0bc       0x84 platforms/nuttx/src/bootloader/common/lib/libbootloader_lib.a(flash_cache.c.obj)
                0x0800a0bc                fc_write
 .text.fc_read  0x0800a140       0x58 platforms/nuttx/src/bootloader/common/lib/libbootloader_lib.a(flash_cache.c.obj)
                0x0800a140                fc_read
 *(.fixup)
 *(.gnu.warning)
 *(.rodata .rodata.*)
 .rodata.g_idle_topstack
                0x0800a198        0x4 NuttX/nuttx/arch/arm/src/libarch.a(stm32_start.o)
                0x0800a198                g_idle_topstack
 .rodata.arm_hardfault.str1.1
                0x0800a19c      0x1c5 NuttX/nuttx/arch/arm/src/libarch.a(arm_hardfault.o)
                                 0x18 (size before relaxing)
 .rodata.g_idlename
                0x0800a361        0xa NuttX/nuttx/sched/libsched.a(nx_start.o)
 *fill*         0x0800a36b        0x1 ffecc2925d7d05c5
 .rodata.g_tasklisttable
                0x0800a36c       0x40 NuttX/nuttx/sched/libsched.a(nx_start.o)
                0x0800a36c                g_tasklisttable
 .rodata.nx_start_task.str1.1
                0x0800a3ac       0x10 NuttX/nuttx/sched/libsched.a(nx_bringup.o)
 .rodata.nx_bringup.str1.1
                0x0800a3ac        0xb NuttX/nuttx/sched/libsched.a(nx_bringup.o)
 .rodata.irq_unexpected_isr.str1.1
                0x0800a3ac       0x18 NuttX/nuttx/sched/libsched.a(irq_unexpectedisr.o)
 .rodata.g_noname
                0x0800a3ac        0x9 NuttX/nuttx/sched/libsched.a(task_setup.o)
 *fill*         0x0800a3b5        0x3 ffecc2925d7d05c5
 .rodata.g_defactions
                0x0800a3b8       0x58 NuttX/nuttx/sched/libsched.a(sig_default.o)
 .rodata.sercon_main.str1.1
                0x0800a410       0xc8 NuttX/apps/libapps.a(cdcacm_main.c.Users.carbs.Desktop.PX4-Autopilot.platforms.nuttx.NuttX.apps.system.cdcacm.o)
 .rodata.g_gpiobase
                0x0800a410       0x20 NuttX/nuttx/arch/arm/src/libarch.a(stm32_gpio.o)
                0x0800a410                g_gpiobase
 .rodata.arm_serialinit.str1.1
                0x0800a430        0xb NuttX/nuttx/arch/arm/src/libarch.a(stm32_serial.o)
 .rodata.g_uart_devs
                0x0800a430       0x20 NuttX/nuttx/arch/arm/src/libarch.a(stm32_serial.o)
 .rodata.g_uart_ops
                0x0800a450       0x34 NuttX/nuttx/arch/arm/src/libarch.a(stm32_serial.o)
 .rodata.g_devops
                0x0800a484       0x1c NuttX/nuttx/arch/arm/src/libarch.a(stm32_otgdev.o)
 .rodata.g_epops
                0x0800a4a0       0x1c NuttX/nuttx/arch/arm/src/libarch.a(stm32_otgdev.o)
 .rodata.umm_initialize.str1.1
                0x0800a4bc        0x5 NuttX/nuttx/mm/libmm.a(umm_initialize.o)
 .rodata.g_baud_table
                0x0800a4bc       0xf8 NuttX/nuttx/libs/libc/libc.a(lib_cfspeed.o)
 .rodata.vsprintf_internal.constprop.0.str1.1
                0x0800a5b4        0x8 NuttX/nuttx/libs/libc/libc.a(lib_libvsprintf.o)
 .rodata.g_nullstring
                0x0800a5b4        0x7 NuttX/nuttx/libs/libc/libc.a(lib_libvsprintf.o)
 *fill*         0x0800a5bb        0x5 ffecc2925d7d05c5
 .rodata.g_dtoa_round
                0x0800a5c0       0x80 NuttX/nuttx/libs/libc/libc.a(lib_dtoa_data.o)
                0x0800a5c0                g_dtoa_round
 .rodata.g_dtoa_scale_down
                0x0800a640       0x48 NuttX/nuttx/libs/libc/libc.a(lib_dtoa_data.o)
                0x0800a640                g_dtoa_scale_down
 .rodata.g_dtoa_scale_up
                0x0800a688       0x48 NuttX/nuttx/libs/libc/libc.a(lib_dtoa_data.o)
                0x0800a688                g_dtoa_scale_up
 .rodata.get_version.str1.1
                0x0800a6d0       0x18 platforms/nuttx/src/bootloader/common/libbootloader.a(bl.c.obj)
 .rodata.bl_proto_rev
                0x0800a6d0        0x4 platforms/nuttx/src/bootloader/common/libbootloader.a(bl.c.obj)
 .rodata.usb_cinit.str1.1
                0x0800a6d4        0x3 platforms/nuttx/src/bootloader/common/lib/libbootloader_lib.a(cdcacm.c.obj)
 .rodata.uart_cinit.str1.1
                0x0800a6d4        0xe platforms/nuttx/src/bootloader/common/lib/libbootloader_lib.a(uart.c.obj)
 .rodata.devnull_register.str1.1
                0x0800a6d4        0xa NuttX/nuttx/drivers/libdrivers.a(dev_null.o)
 .rodata.devnull_fops
                0x0800a6d4       0x20 NuttX/nuttx/drivers/libdrivers.a(dev_null.o)
 .rodata.g_serialops
                0x0800a6f4       0x20 NuttX/nuttx/drivers/libdrivers.a(serial.o)
 .rodata.cdcacm_initialize.str1.1
                0x0800a714        0xe NuttX/nuttx/drivers/libdrivers.a(cdcacm.o)
 .rodata.g_uartops
                0x0800a714       0x34 NuttX/nuttx/drivers/libdrivers.a(cdcacm.o)
 .rodata.g_driverops
                0x0800a748       0x18 NuttX/nuttx/drivers/libdrivers.a(cdcacm.o)
 .rodata.cdcacm_mkstrdesc.str1.1
                0x0800a760       0x1e NuttX/nuttx/drivers/libdrivers.a(cdcacm_desc.o)
 .rodata.g_devdesc
                0x0800a760       0x12 NuttX/nuttx/drivers/libdrivers.a(cdcacm_desc.o)
 *fill*         0x0800a772        0x2 ffecc2925d7d05c5
 .rodata.g_default_channel_ops
                0x0800a774       0x14 NuttX/nuttx/drivers/libdrivers.a(syslog_channel.o)
 .rodata.inode_root_reserve.str1.1
                0x0800a788        0x1 NuttX/nuttx/fs/libfs.a(fs_inodereserve.o)
 .rodata.inode_search.str1.1
                0x0800a788        0x7 NuttX/nuttx/fs/libfs.a(fs_inodesearch.o)
 .rodata.g_dir_fileops
                0x0800a788       0x20 NuttX/nuttx/fs/libfs.a(fs_dir.o)
 .rodata.inode_getpath.str1.1
                0x0800a7a8        0x2 NuttX/nuttx/fs/libfs.a(fs_inodegetpath.o)
 .rodata.bootloader_main.str1.1
                0x0800a7a8       0x1e platforms/nuttx/src/bootloader/stm/stm32h7/arch_bootloader/libarch_bootloader.a(main.c.obj)
 .rodata.str1.1
                0x0800a7a8       0x1b platforms/nuttx/src/bootloader/stm/stm32h7/arch_bootloader/libarch_bootloader.a(main.c.obj)
 .rodata._ZL5modes
                0x0800a7a8       0x14 platforms/nuttx/src/px4/stm/stm32h7/board_reset/libarch_board_reset.a(board_reset.cpp.obj)
 *(.gnu.linkonce.t.*)
 *(.glue_7)
 .glue_7        0x0800a7bc        0x0 linker stubs
 *(.glue_7t)
 .glue_7t       0x0800a7bc        0x0 linker stubs
 *(.got)
 *(.gcc_except_table)
 *(.gnu.linkonce.r.*)
                0x0800a7bc                        _etext = ABSOLUTE (.)

.vfp11_veneer   0x0800a7bc        0x0
 .vfp11_veneer  0x0800a7bc        0x0 linker stubs

.v4_bx          0x0800a7bc        0x0
 .v4_bx         0x0800a7bc        0x0 linker stubs

.iplt           0x0800a7bc        0x0
 .iplt          0x0800a7bc        0x0 NuttX/nuttx/arch/arm/src/libarch.a(arm_vectors.o)

.init_section   0x0800a7bc        0x0
                0x0800a7bc                        _sinit = ABSOLUTE (.)
 *(.init_array .init_array.*)
                0x0800a7bc                        _einit = ABSOLUTE (.)

.ARM.extab
 *(.ARM.extab*)
                0x0800a7bc                        __exidx_start = ABSOLUTE (.)

.ARM.exidx      0x0800a7bc        0x8
 *(.ARM.exidx*)
 .ARM.exidx.text.__udivmoddi4
                0x0800a7bc        0x8 /opt/homebrew/Cellar/arm-gcc-bin@13/13.2.rel1/bin/../lib/gcc/arm-none-eabi/13.2.1/thumb/v7e-m+dp/hard/libgcc.a(_udivmoddi4.o)
                0x0800a7c4                        __exidx_end = ABSOLUTE (.)
                0x0800a7c4                        _eronly = ABSOLUTE (.)

.rel.dyn        0x0800a7c4        0x0
 .rel.iplt      0x0800a7c4        0x0 NuttX/nuttx/arch/arm/src/libarch.a(arm_vectors.o)

.data           0x24000000      0x104 load address 0x0800a7c4
                0x24000000                        _sdata = ABSOLUTE (.)
 *(.data .data.*)
 .data.g_usart6priv
                0x24000000       0x78 NuttX/nuttx/arch/arm/src/libarch.a(stm32_serial.o)
 .data.g_usb_df
                0x24000078        0x4 platforms/nuttx/src/bootloader/common/lib/libbootloader_lib.a(cdcacm.c.obj)
                0x24000078                g_usb_df
 .data.g_uart_df
                0x2400007c        0x4 platforms/nuttx/src/bootloader/common/lib/libbootloader_lib.a(uart.c.obj)
                0x2400007c                g_uart_df
 .data.g_syslog_channel
                0x24000080        0x4 NuttX/nuttx/drivers/libdrivers.a(syslog_channel.o)
                0x24000080                g_syslog_channel
 .data.g_default_channel
                0x24000084        0x4 NuttX/nuttx/drivers/libdrivers.a(syslog_channel.o)
 .data.g_inode_lock
                0x24000088        0xc NuttX/nuttx/fs/libfs.a(fs_inode.o)
 .data.g_dir_inode
                0x24000094       0x1c NuttX/nuttx/fs/libfs.a(fs_dir.o)
 .data.board_info
                0x240000b0       0x10 platforms/nuttx/src/bootloader/stm/stm32h7/arch_bootloader/libarch_bootloader.a(main.c.obj)
                0x240000b0                board_info
 .data.mcu_descriptions
                0x240000c0       0x18 platforms/nuttx/src/bootloader/stm/stm32h7/arch_bootloader/libarch_bootloader.a(main.c.obj)
                0x240000c0                mcu_descriptions
 .data.g_divisor
                0x240000d8        0x4 platforms/nuttx/src/bootloader/stm/stm32h7/arch_bootloader/libarch_bootloader.a(systick.c.obj)
                0x240000d8                g_divisor
 .data.stm32h7_flash_bank2_priv
                0x240000dc       0x14 NuttX/nuttx/arch/arm/src/libarch.a(stm32_flash.o)
 .data.stm32h7_flash_bank1_priv
                0x240000f0       0x14 NuttX/nuttx/arch/arm/src/libarch.a(stm32_flash.o)
 *(.gnu.linkonce.d.*)
                0x24000104                        _edata = ABSOLUTE (.)

.igot.plt       0x24000104        0x0 load address 0x0800a8c8
 .igot.plt      0x24000104        0x0 NuttX/nuttx/arch/arm/src/libarch.a(arm_vectors.o)

.bss            0x24000108     0x1438 load address 0x0800a8c8
                0x24000108                        _sbss = ABSOLUTE (.)
 *(.bss .bss.*)
 .bss           0x24000108      0x300 NuttX/nuttx/arch/arm/src/libarch.a(arm_exception.o)
                0x24000108                g_intstackalloc
                0x24000408                g_intstacktop
 .bss.g_bkp_writable_counter
                0x24000408        0x2 NuttX/nuttx/arch/arm/src/libarch.a(stm32_pwr.o)
 *fill*         0x2400040a        0x2 
 .bss.g_current_regs
                0x2400040c        0x4 NuttX/nuttx/arch/arm/src/libarch.a(stm32_irq.o)
                0x2400040c                g_current_regs
 .bss.g_idleargv
                0x24000410        0x8 NuttX/nuttx/sched/libsched.a(nx_start.o)
 .bss.g_idletcb
                0x24000418       0x8c NuttX/nuttx/sched/libsched.a(nx_start.o)
 .bss.g_nx_initstate
                0x240004a4        0x1 NuttX/nuttx/sched/libsched.a(nx_start.o)
                0x240004a4                g_nx_initstate
 *fill*         0x240004a5        0x3 
 .bss.g_npidhash
                0x240004a8        0x4 NuttX/nuttx/sched/libsched.a(nx_start.o)
                0x240004a8                g_npidhash
 .bss.g_pidhash
                0x240004ac        0x4 NuttX/nuttx/sched/libsched.a(nx_start.o)
                0x240004ac                g_pidhash
 .bss.g_lastpid
                0x240004b0        0x4 NuttX/nuttx/sched/libsched.a(nx_start.o)
                0x240004b0                g_lastpid
 .bss.g_inactivetasks
                0x240004b4        0x8 NuttX/nuttx/sched/libsched.a(nx_start.o)
                0x240004b4                g_inactivetasks
 .bss.g_stoppedtasks
                0x240004bc        0x8 NuttX/nuttx/sched/libsched.a(nx_start.o)
                0x240004bc                g_stoppedtasks
 .bss.g_waitingforsignal
                0x240004c4        0x8 NuttX/nuttx/sched/libsched.a(nx_start.o)
                0x240004c4                g_waitingforsignal
 .bss.g_waitingforsemaphore
                0x240004cc        0x8 NuttX/nuttx/sched/libsched.a(nx_start.o)
                0x240004cc                g_waitingforsemaphore
 .bss.g_pendingtasks
                0x240004d4        0x8 NuttX/nuttx/sched/libsched.a(nx_start.o)
                0x240004d4                g_pendingtasks
 .bss.g_running_tasks
                0x240004dc        0x4 NuttX/nuttx/sched/libsched.a(nx_start.o)
                0x240004dc                g_running_tasks
 .bss.g_readytorun
                0x240004e0        0x8 NuttX/nuttx/sched/libsched.a(nx_start.o)
                0x240004e0                g_readytorun
 .bss.g_irqvector
                0x240004e8      0x530 NuttX/nuttx/sched/libsched.a(irq_initialize.o)
                0x240004e8                g_irqvector
 .bss.g_sigpendingirqsignal
                0x24000a18        0x8 NuttX/nuttx/sched/libsched.a(sig_initialize.o)
                0x24000a18                g_sigpendingirqsignal
 .bss.g_sigpendingsignal
                0x24000a20        0x8 NuttX/nuttx/sched/libsched.a(sig_initialize.o)
                0x24000a20                g_sigpendingsignal
 .bss.g_sigpendingirqaction
                0x24000a28        0x8 NuttX/nuttx/sched/libsched.a(sig_initialize.o)
                0x24000a28                g_sigpendingirqaction
 .bss.g_sigpendingaction
                0x24000a30        0x8 NuttX/nuttx/sched/libsched.a(sig_initialize.o)
                0x24000a30                g_sigpendingaction
 .bss.g_sigfreeaction
                0x24000a38        0x8 NuttX/nuttx/sched/libsched.a(sig_initialize.o)
                0x24000a38                g_sigfreeaction
 .bss.g_wdactivelist
                0x24000a40        0x8 NuttX/nuttx/sched/libsched.a(wd_initialize.o)
                0x24000a40                g_wdactivelist
 .bss.g_cdcacm  0x24000a48        0x4 NuttX/apps/libapps.a(cdcacm_main.c.Users.carbs.Desktop.PX4-Autopilot.platforms.nuttx.NuttX.apps.system.cdcacm.o)
 .bss.g_usart6txbuffer
                0x24000a4c      0x12c NuttX/nuttx/arch/arm/src/libarch.a(stm32_serial.o)
 .bss.g_usart6rxbuffer
                0x24000b78      0x258 NuttX/nuttx/arch/arm/src/libarch.a(stm32_serial.o)
 .bss.g_otghsdev
                0x24000dd0      0x1e8 NuttX/nuttx/arch/arm/src/libarch.a(stm32_otgdev.o)
 .bss.g_mmheap  0x24000fb8        0x4 NuttX/nuttx/mm/libmm.a(umm_globals.o)
                0x24000fb8                g_mmheap
 .bss.g_errno   0x24000fbc        0x4 NuttX/nuttx/libs/libc/libc.a(lib_errno.o)
 .bss.inited.0  0x24000fc0        0x4 NuttX/nuttx/libs/libc/libc.a(lib_cxx_initialize.o)
 .bss.crctab.0  0x24000fc4      0x400 platforms/nuttx/src/bootloader/common/libbootloader.a(bl.c.obj)
 .bss.flash_buffer.1
                0x240013c4      0x100 platforms/nuttx/src/bootloader/common/libbootloader.a(bl.c.obj)
 .bss.cin_count
                0x240014c4        0x4 platforms/nuttx/src/bootloader/common/libbootloader.a(bl.c.obj)
 .bss.timer     0x240014c8       0x10 platforms/nuttx/src/bootloader/common/libbootloader.a(bl.c.obj)
                0x240014c8                timer
 .bss._led_state
                0x240014d8        0x1 platforms/nuttx/src/bootloader/common/libbootloader.a(bl.c.obj)
 .bss.last_input
                0x240014d9        0x1 platforms/nuttx/src/bootloader/common/libbootloader.a(bl.c.obj)
 .bss.bl_type   0x240014da        0x1 platforms/nuttx/src/bootloader/common/libbootloader.a(bl.c.obj)
 *fill*         0x240014db        0x1 
 .bss.g_init    0x240014dc        0x4 platforms/nuttx/src/bootloader/common/lib/libbootloader_lib.a(cdcacm.c.obj)
                0x240014dc                g_init
 .bss.g_device  0x240014e0        0x4 platforms/nuttx/src/bootloader/common/lib/libbootloader_lib.a(cdcacm.c.obj)
                0x240014e0                g_device
 .bss.g_root_inode
                0x240014e4        0x4 NuttX/nuttx/fs/libfs.a(fs_inodesearch.o)
                0x240014e4                g_root_inode
 .bss.g_system_timer
                0x240014e8        0x4 NuttX/nuttx/sched/libsched.a(clock_initialize.o)
                0x240014e8                g_system_timer
 .bss.g_saveptr
                0x240014ec        0x4 NuttX/nuttx/libs/libc/libc.a(lib_strtok.o)
 .bss.flash_cache
                0x240014f0       0x50 platforms/nuttx/src/bootloader/common/lib/libbootloader_lib.a(flash_cache.c.obj)
                0x240014f0                flash_cache
 *(.gnu.linkonce.b.*)
 *(COMMON)
                0x24001540                        . = ALIGN (0x4)
                0x24001540                        _ebss = ABSOLUTE (.)

.stab
 *(.stab)

.stabstr
 *(.stabstr)

.stab.excl
 *(.stab.excl)

.stab.exclstr
 *(.stab.exclstr)

.stab.index
 *(.stab.index)

.stab.indexstr
 *(.stab.indexstr)

.comment        0x00000000       0x44
 *(.comment)
 .comment       0x00000000       0x44 NuttX/nuttx/arch/arm/src/libarch.a(arm_vectors.o)
                                 0x45 (size before relaxing)
 .comment       0x00000044       0x45 NuttX/nuttx/arch/arm/src/libarch.a(stm32_start.o)
 .comment       0x00000044       0x45 NuttX/nuttx/arch/arm/src/libarch.a(stm32_rcc.o)
 .comment       0x00000044       0x45 NuttX/nuttx/arch/arm/src/libarch.a(stm32_lowputc.o)
 .comment       0x00000044       0x45 NuttX/nuttx/arch/arm/src/libarch.a(stm32_pwr.o)
 .comment       0x00000044       0x45 NuttX/nuttx/arch/arm/src/libarch.a(arm_modifyreg32.o)
 .comment       0x00000044       0x45 NuttX/nuttx/arch/arm/src/libarch.a(arm_udelay.o)
 .comment       0x00000044       0x45 NuttX/nuttx/arch/arm/src/libarch.a(arm_cache.o)
 .comment       0x00000044       0x45 NuttX/nuttx/arch/arm/src/libarch.a(arm_doirq.o)
 .comment       0x00000044       0x45 NuttX/nuttx/arch/arm/src/libarch.a(arm_fpuconfig.o)
 .comment       0x00000044       0x45 NuttX/nuttx/arch/arm/src/libarch.a(stm32_irq.o)
 .comment       0x00000044       0x45 NuttX/nuttx/arch/arm/src/libarch.a(arm_hardfault.o)
 .comment       0x00000044       0x45 NuttX/nuttx/arch/arm/src/libarch.a(arm_svcall.o)
 .comment       0x00000044       0x45 NuttX/nuttx/libs/libc/libc.a(lib_assert.o)
 .comment       0x00000044       0x45 NuttX/nuttx/libs/libc/libc.a(lib_abort.o)
 .comment       0x00000044       0x45 NuttX/nuttx/libs/libc/libc.a(lib_exit.o)
 .comment       0x00000044       0x45 NuttX/nuttx/libs/libc/libc.a(lib_memset.o)
 .comment       0x00000044       0x45 boards/hkust/nxt-dual/src/libdrivers_board.a(bootloader_main.c.obj)
 .comment       0x00000044       0x45 boards/hkust/nxt-dual/src/libdrivers_board.a(usb.c.obj)
 .comment       0x00000044       0x45 NuttX/nuttx/sched/libsched.a(nx_start.o)
 .comment       0x00000044       0x45 NuttX/nuttx/sched/libsched.a(nx_bringup.o)
 .comment       0x00000044       0x45 NuttX/nuttx/sched/libsched.a(irq_attach.o)
 .comment       0x00000044       0x45 NuttX/nuttx/sched/libsched.a(irq_dispatch.o)
 .comment       0x00000044       0x45 NuttX/nuttx/sched/libsched.a(irq_unexpectedisr.o)
 .comment       0x00000044       0x45 NuttX/nuttx/sched/libsched.a(sched_lock.o)
 .comment       0x00000044       0x45 NuttX/nuttx/sched/libsched.a(sched_unlock.o)
 .comment       0x00000044       0x45 NuttX/nuttx/sched/libsched.a(task_create.o)
 .comment       0x00000044       0x45 NuttX/nuttx/sched/libsched.a(task_init.o)
 .comment       0x00000044       0x45 NuttX/nuttx/sched/libsched.a(task_setup.o)
 .comment       0x00000044       0x45 NuttX/nuttx/sched/libsched.a(task_activate.o)
 .comment       0x00000044       0x45 NuttX/nuttx/sched/libsched.a(task_start.o)
 .comment       0x00000044       0x45 NuttX/nuttx/sched/libsched.a(exit.o)
 .comment       0x00000044       0x45 NuttX/nuttx/sched/libsched.a(tls_initinfo.o)
 .comment       0x00000044       0x45 NuttX/nuttx/sched/libsched.a(group_create.o)
 .comment       0x00000044       0x45 NuttX/nuttx/sched/libsched.a(group_leave.o)
 .comment       0x00000044       0x45 NuttX/nuttx/sched/libsched.a(group_setupidlefiles.o)
 .comment       0x00000044       0x45 NuttX/nuttx/sched/libsched.a(group_setuptaskfiles.o)
 .comment       0x00000044       0x45 NuttX/nuttx/sched/libsched.a(irq_initialize.o)
 .comment       0x00000044       0x45 NuttX/nuttx/sched/libsched.a(sched_releasetcb.o)
 .comment       0x00000044       0x45 NuttX/nuttx/sched/libsched.a(sig_procmask.o)
 .comment       0x00000044       0x45 NuttX/nuttx/sched/libsched.a(sig_unmaskpendingsignal.o)
 .comment       0x00000044       0x45 NuttX/nuttx/sched/libsched.a(sig_removependingsignal.o)
 .comment       0x00000044       0x45 NuttX/nuttx/sched/libsched.a(sig_releasependingsignal.o)
 .comment       0x00000044       0x45 NuttX/nuttx/sched/libsched.a(sig_lowest.o)
 .comment       0x00000044       0x45 NuttX/nuttx/sched/libsched.a(sig_cleanup.o)
 .comment       0x00000044       0x45 NuttX/nuttx/sched/libsched.a(sig_dispatch.o)
 .comment       0x00000044       0x45 NuttX/nuttx/sched/libsched.a(sig_deliver.o)
 .comment       0x00000044       0x45 NuttX/nuttx/sched/libsched.a(sig_default.o)
 .comment       0x00000044       0x45 NuttX/nuttx/sched/libsched.a(task_exithook.o)
 .comment       0x00000044       0x45 NuttX/nuttx/sched/libsched.a(task_recover.o)
 .comment       0x00000044       0x45 NuttX/nuttx/sched/libsched.a(task_initinfo.o)
 .comment       0x00000044       0x45 NuttX/nuttx/sched/libsched.a(task_uninitinfo.o)
 .comment       0x00000044       0x45 NuttX/nuttx/sched/libsched.a(wd_recover.o)
 .comment       0x00000044       0x45 NuttX/nuttx/sched/libsched.a(group_setupstreams.o)
 .comment       0x00000044       0x45 NuttX/nuttx/sched/libsched.a(sched_gettcb.o)
 .comment       0x00000044       0x45 NuttX/nuttx/sched/libsched.a(sched_suspend.o)
 .comment       0x00000044       0x45 NuttX/nuttx/sched/libsched.a(sched_continue.o)
 .comment       0x00000044       0x45 NuttX/nuttx/sched/libsched.a(sem_destroy.o)
 .comment       0x00000044       0x45 NuttX/nuttx/sched/libsched.a(sem_recover.o)
 .comment       0x00000044       0x45 NuttX/nuttx/sched/libsched.a(sem_waitirq.o)
 .comment       0x00000044       0x45 NuttX/nuttx/sched/libsched.a(sig_initialize.o)
 .comment       0x00000044       0x45 NuttX/nuttx/sched/libsched.a(sig_action.o)
 .comment       0x00000044       0x45 NuttX/nuttx/sched/libsched.a(sig_pending.o)
 .comment       0x00000044       0x45 NuttX/nuttx/sched/libsched.a(sig_findaction.o)
 .comment       0x00000044       0x45 NuttX/nuttx/sched/libsched.a(sig_allocpendingsigaction.o)
 .comment       0x00000044       0x45 NuttX/nuttx/sched/libsched.a(sig_releasependingsigaction.o)
 .comment       0x00000044       0x45 NuttX/nuttx/sched/libsched.a(wd_cancel.o)
 .comment       0x00000044       0x45 NuttX/nuttx/sched/libsched.a(sched_addblocked.o)
 .comment       0x00000044       0x45 NuttX/nuttx/sched/libsched.a(sched_removeblocked.o)
 .comment       0x00000044       0x45 NuttX/nuttx/sched/libsched.a(wd_initialize.o)
 .comment       0x00000044       0x45 NuttX/nuttx/sched/libsched.a(sched_addprioritized.o)
 .comment       0x00000044       0x45 NuttX/nuttx/binfmt/libbinfmt.a(binfmt_initialize.o)
 .comment       0x00000044       0x45 NuttX/apps/libapps.a(cdcacm_main.c.Users.carbs.Desktop.PX4-Autopilot.platforms.nuttx.NuttX.apps.system.cdcacm.o)
 .comment       0x00000044       0x45 NuttX/nuttx/arch/arm/src/libarch.a(stm32_allocateheap.o)
 .comment       0x00000044       0x45 NuttX/nuttx/arch/arm/src/libarch.a(stm32_gpio.o)
 .comment       0x00000044       0x45 NuttX/nuttx/arch/arm/src/libarch.a(arm_assert.o)
 .comment       0x00000044       0x45 NuttX/nuttx/arch/arm/src/libarch.a(arm_blocktask.o)
 .comment       0x00000044       0x45 NuttX/nuttx/arch/arm/src/libarch.a(arm_createstack.o)
 .comment       0x00000044       0x45 NuttX/nuttx/arch/arm/src/libarch.a(arm_exit.o)
 .comment       0x00000044       0x45 NuttX/nuttx/arch/arm/src/libarch.a(arm_fullcontextrestore.o)
 .comment       0x00000044       0x45 NuttX/nuttx/arch/arm/src/libarch.a(arm_initialize.o)
 .comment       0x00000044       0x45 NuttX/nuttx/arch/arm/src/libarch.a(arm_releasepending.o)
 .comment       0x00000044       0x45 NuttX/nuttx/arch/arm/src/libarch.a(arm_releasestack.o)
 .comment       0x00000044       0x45 NuttX/nuttx/arch/arm/src/libarch.a(arm_stackframe.o)
 .comment       0x00000044       0x45 NuttX/nuttx/arch/arm/src/libarch.a(arm_switchcontext.o)
 .comment       0x00000044       0x45 NuttX/nuttx/arch/arm/src/libarch.a(arm_unblocktask.o)
 .comment       0x00000044       0x45 NuttX/nuttx/arch/arm/src/libarch.a(arm_usestack.o)
 .comment       0x00000044       0x45 NuttX/nuttx/arch/arm/src/libarch.a(arm_checkstack.o)
 .comment       0x00000044       0x45 NuttX/nuttx/arch/arm/src/libarch.a(arm_idle.o)
 .comment       0x00000044       0x45 NuttX/nuttx/arch/arm/src/libarch.a(arm_initialstate.o)
 .comment       0x00000044       0x45 NuttX/nuttx/arch/arm/src/libarch.a(arm_schedulesigaction.o)
 .comment       0x00000044       0x45 NuttX/nuttx/arch/arm/src/libarch.a(arm_sigdeliver.o)
 .comment       0x00000044       0x45 NuttX/nuttx/arch/arm/src/libarch.a(stm32_serial.o)
 .comment       0x00000044       0x45 NuttX/nuttx/arch/arm/src/libarch.a(stm32_otgdev.o)
 .comment       0x00000044       0x45 NuttX/nuttx/arch/arm/src/libarch.a(arm_mdelay.o)
 .comment       0x00000044       0x45 NuttX/nuttx/mm/libmm.a(umm_initialize.o)
 .comment       0x00000044       0x45 NuttX/nuttx/mm/libmm.a(umm_free.o)
 .comment       0x00000044       0x45 NuttX/nuttx/mm/libmm.a(umm_malloc.o)
 .comment       0x00000044       0x45 NuttX/nuttx/mm/libmm.a(umm_zalloc.o)
 .comment       0x00000044       0x45 NuttX/nuttx/mm/libmm.a(mm_initialize.o)
 .comment       0x00000044       0x45 NuttX/nuttx/mm/libmm.a(mm_sem.o)
 .comment       0x00000044       0x45 NuttX/nuttx/mm/libmm.a(mm_addfreechunk.o)
 .comment       0x00000044       0x45 NuttX/nuttx/mm/libmm.a(mm_size2ndx.o)
 .comment       0x00000044       0x45 NuttX/nuttx/mm/libmm.a(mm_free.o)
 .comment       0x00000044       0x45 NuttX/nuttx/mm/libmm.a(mm_malloc.o)
 .comment       0x00000044       0x45 NuttX/nuttx/mm/libmm.a(mm_zalloc.o)
 .comment       0x00000044       0x45 NuttX/nuttx/mm/libmm.a(umm_globals.o)
 .comment       0x00000044       0x45 NuttX/nuttx/libs/libc/libc.a(lib_errno.o)
 .comment       0x00000044       0x45 NuttX/nuttx/libs/libc/libc.a(sq_addlast.o)
 .comment       0x00000044       0x45 NuttX/nuttx/libs/libc/libc.a(sq_rem.o)
 .comment       0x00000044       0x45 NuttX/nuttx/libs/libc/libc.a(sq_remfirst.o)
 .comment       0x00000044       0x45 NuttX/nuttx/libs/libc/libc.a(sq_remafter.o)
 .comment       0x00000044       0x45 NuttX/nuttx/libs/libc/libc.a(dq_addlast.o)
 .comment       0x00000044       0x45 NuttX/nuttx/libs/libc/libc.a(dq_addfirst.o)
 .comment       0x00000044       0x45 NuttX/nuttx/libs/libc/libc.a(dq_rem.o)
 .comment       0x00000044       0x45 NuttX/nuttx/libs/libc/libc.a(task_startup.o)
 .comment       0x00000044       0x45 NuttX/nuttx/libs/libc/libc.a(sem_init.o)
 .comment       0x00000044       0x45 NuttX/nuttx/libs/libc/libc.a(sem_getvalue.o)
 .comment       0x00000044       0x45 NuttX/nuttx/libs/libc/libc.a(sig_addset.o)
 .comment       0x00000044       0x45 NuttX/nuttx/libs/libc/libc.a(sig_delset.o)
 .comment       0x00000044       0x45 NuttX/nuttx/libs/libc/libc.a(sig_emptyset.o)
 .comment       0x00000044       0x45 NuttX/nuttx/libs/libc/libc.a(sig_ismember.o)
 .comment       0x00000044       0x45 NuttX/nuttx/libs/libc/libc.a(lib_printf.o)
 .comment       0x00000044       0x45 NuttX/nuttx/libs/libc/libc.a(lib_libflushall.o)
 .comment       0x00000044       0x45 NuttX/nuttx/libs/libc/libc.a(lib_libfflush.o)
 .comment       0x00000044       0x45 NuttX/nuttx/libs/libc/libc.a(lib_vfprintf.o)
 .comment       0x00000044       0x45 NuttX/nuttx/libs/libc/libc.a(lib_libstream.o)
 .comment       0x00000044       0x45 NuttX/nuttx/libs/libc/libc.a(lib_libfilesem.o)
 .comment       0x00000044       0x45 NuttX/nuttx/libs/libc/libc.a(lib_stdoutstream.o)
 .comment       0x00000044       0x45 NuttX/nuttx/libs/libc/libc.a(lib_strcpy.o)
 .comment       0x00000044       0x45 NuttX/nuttx/libs/libc/libc.a(lib_strlcpy.o)
 .comment       0x00000044       0x45 NuttX/nuttx/libs/libc/libc.a(lib_strlen.o)
 .comment       0x00000044       0x45 NuttX/nuttx/libs/libc/libc.a(lib_strncpy.o)
 .comment       0x00000044       0x45 NuttX/nuttx/libs/libc/libc.a(lib_cfspeed.o)
 .comment       0x00000044       0x45 NuttX/nuttx/libs/libc/libc.a(tls_getinfo.o)
 .comment       0x00000044       0x45 NuttX/nuttx/libs/libc/libc.a(lib_cxx_initialize.o)
 .comment       0x00000044       0x45 NuttX/nuttx/libs/libc/libc.a(lib_libvsprintf.o)
 .comment       0x00000044       0x45 NuttX/nuttx/libs/libc/libc.a(lib_ultoa_invert.o)
 .comment       0x00000044       0x45 NuttX/nuttx/libs/libc/libc.a(lib_dtoa_engine.o)
 .comment       0x00000044       0x45 NuttX/nuttx/libs/libc/libc.a(lib_dtoa_data.o)
 .comment       0x00000044       0x45 NuttX/nuttx/libs/libc/libc.a(lib_fputc.o)
 .comment       0x00000044       0x45 NuttX/nuttx/libs/libc/libc.a(lib_libnoflush.o)
 .comment       0x00000044       0x45 NuttX/nuttx/libs/libc/libc.a(lib_strnlen.o)
 .comment       0x00000044       0x45 NuttX/nuttx/libs/libc/libc.a(lib_libfwrite.o)
 .comment       0x00000044       0x45 NuttX/nuttx/libs/libc/libc.a(lib_rdflush.o)
 .comment       0x00000044       0x45 NuttX/nuttx/libs/libc/libc.a(lib_fseek.o)
 .comment       0x00000044       0x45 NuttX/nuttx/libs/libc/libc.a(lib_fseeko.o)
 .comment       0x00000044       0x45 NuttX/nuttx/libs/libc/libc.a(lib_wrflush.o)
 .comment       0x00000044       0x45 platforms/nuttx/src/bootloader/common/libbootloader.a(bl.c.obj)
 .comment       0x00000044       0x45 platforms/nuttx/src/bootloader/common/lib/libbootloader_lib.a(cdcacm.c.obj)
 .comment       0x00000044       0x45 platforms/nuttx/src/bootloader/common/lib/libbootloader_lib.a(uart.c.obj)
 .comment       0x00000044       0x45 NuttX/nuttx/boards/libboards.a(boardctl.o)
 .comment       0x00000044       0x45 NuttX/nuttx/drivers/libdrivers.a(drivers_initialize.o)
 .comment       0x00000044       0x45 NuttX/nuttx/drivers/libdrivers.a(dev_null.o)
 .comment       0x00000044       0x45 NuttX/nuttx/drivers/libdrivers.a(serial.o)
 .comment       0x00000044       0x45 NuttX/nuttx/drivers/libdrivers.a(serial_io.o)
 .comment       0x00000044       0x45 NuttX/nuttx/drivers/libdrivers.a(syslog_flush.o)
 .comment       0x00000044       0x45 NuttX/nuttx/drivers/libdrivers.a(syslog_initialize.o)
 .comment       0x00000044       0x45 NuttX/nuttx/drivers/libdrivers.a(cdcacm.o)
 .comment       0x00000044       0x45 NuttX/nuttx/drivers/libdrivers.a(cdcacm_desc.o)
 .comment       0x00000044       0x45 NuttX/nuttx/drivers/libdrivers.a(syslog_channel.o)
 .comment       0x00000044       0x45 NuttX/nuttx/fs/libfs.a(fs_initialize.o)
 .comment       0x00000044       0x45 NuttX/nuttx/fs/libfs.a(fs_files.o)
 .comment       0x00000044       0x45 NuttX/nuttx/fs/libfs.a(fs_inode.o)
 .comment       0x00000044       0x45 NuttX/nuttx/fs/libfs.a(fs_inodereserve.o)
 .comment       0x00000044       0x45 NuttX/nuttx/fs/libfs.a(fs_inodesearch.o)
 .comment       0x00000044       0x45 NuttX/nuttx/fs/libfs.a(fs_close.o)
 .comment       0x00000044       0x45 NuttX/nuttx/fs/libfs.a(fs_lseek.o)
 .comment       0x00000044       0x45 NuttX/nuttx/fs/libfs.a(fs_open.o)
 .comment       0x00000044       0x45 NuttX/nuttx/fs/libfs.a(fs_read.o)
 .comment       0x00000044       0x45 NuttX/nuttx/fs/libfs.a(fs_write.o)
 .comment       0x00000044       0x45 NuttX/nuttx/fs/libfs.a(fs_dir.o)
 .comment       0x00000044       0x45 NuttX/nuttx/fs/libfs.a(fs_fdopen.o)
 .comment       0x00000044       0x45 NuttX/nuttx/fs/libfs.a(fs_registerdriver.o)
 .comment       0x00000044       0x45 NuttX/nuttx/fs/libfs.a(fs_unregisterdriver.o)
 .comment       0x00000044       0x45 NuttX/nuttx/fs/libfs.a(fs_inodeaddref.o)
 .comment       0x00000044       0x45 NuttX/nuttx/fs/libfs.a(fs_inodefind.o)
 .comment       0x00000044       0x45 NuttX/nuttx/fs/libfs.a(fs_inoderelease.o)
 .comment       0x00000044       0x45 NuttX/nuttx/fs/libfs.a(fs_inoderemove.o)
 .comment       0x00000044       0x45 NuttX/nuttx/fs/libfs.a(fs_inodefree.o)
 .comment       0x00000044       0x45 NuttX/nuttx/sched/libsched.a(clock_initialize.o)
 .comment       0x00000044       0x45 NuttX/nuttx/sched/libsched.a(sched_getfiles.o)
 .comment       0x00000044       0x45 NuttX/nuttx/sched/libsched.a(sched_addreadytorun.o)
 .comment       0x00000044       0x45 NuttX/nuttx/sched/libsched.a(sched_removereadytorun.o)
 .comment       0x00000044       0x45 NuttX/nuttx/sched/libsched.a(sched_mergepending.o)
 .comment       0x00000044       0x45 NuttX/nuttx/sched/libsched.a(sched_getstreams.o)
 .comment       0x00000044       0x45 NuttX/nuttx/sched/libsched.a(sched_idletask.o)
 .comment       0x00000044       0x45 NuttX/nuttx/sched/libsched.a(sched_self.o)
 .comment       0x00000044       0x45 NuttX/nuttx/sched/libsched.a(sched_get_stackinfo.o)
 .comment       0x00000044       0x45 NuttX/nuttx/sched/libsched.a(sem_wait.o)
 .comment       0x00000044       0x45 NuttX/nuttx/sched/libsched.a(sem_post.o)
 .comment       0x00000044       0x45 NuttX/nuttx/sched/libsched.a(sem_reset.o)
 .comment       0x00000044       0x45 NuttX/nuttx/sched/libsched.a(sig_kill.o)
 .comment       0x00000044       0x45 NuttX/nuttx/sched/libsched.a(sig_usleep.o)
 .comment       0x00000044       0x45 NuttX/nuttx/sched/libsched.a(task_exit.o)
 .comment       0x00000044       0x45 NuttX/nuttx/sched/libsched.a(task_getpid.o)
 .comment       0x00000044       0x45 NuttX/nuttx/sched/libsched.a(task_terminate.o)
 .comment       0x00000044       0x45 NuttX/nuttx/sched/libsched.a(task_gettid.o)
 .comment       0x00000044       0x45 NuttX/nuttx/sched/libsched.a(wd_start.o)
 .comment       0x00000044       0x45 NuttX/nuttx/sched/libsched.a(sig_nanosleep.o)
 .comment       0x00000044       0x45 NuttX/nuttx/sched/libsched.a(sig_timedwait.o)
 .comment       0x00000044       0x45 NuttX/nuttx/arch/arm/src/libarch.a(stm32_timerisr.o)
 .comment       0x00000044       0x45 NuttX/nuttx/arch/arm/src/libarch.a(arm_nputs.o)
 .comment       0x00000044       0x45 NuttX/nuttx/mm/libmm.a(umm_realloc.o)
 .comment       0x00000044       0x45 NuttX/nuttx/mm/libmm.a(mm_realloc.o)
 .comment       0x00000044       0x45 NuttX/nuttx/mm/libmm.a(mm_shrinkchunk.o)
 .comment       0x00000044       0x45 NuttX/nuttx/libs/libc/libc.a(lib_umask.o)
 .comment       0x00000044       0x45 NuttX/nuttx/libs/libc/libc.a(sq_addfirst.o)
 .comment       0x00000044       0x45 NuttX/nuttx/libs/libc/libc.a(sq_addafter.o)
 .comment       0x00000044       0x45 NuttX/nuttx/libs/libc/libc.a(clock_ticks2time.o)
 .comment       0x00000044       0x45 NuttX/nuttx/libs/libc/libc.a(clock_time2ticks.o)
 .comment       0x00000044       0x45 NuttX/nuttx/libs/libc/libc.a(sem_setprotocol.o)
 .comment       0x00000044       0x45 NuttX/nuttx/libs/libc/libc.a(lib_asprintf.o)
 .comment       0x00000044       0x45 NuttX/nuttx/libs/libc/libc.a(lib_snprintf.o)
 .comment       0x00000044       0x45 NuttX/nuttx/libs/libc/libc.a(lib_vasprintf.o)
 .comment       0x00000044       0x45 NuttX/nuttx/libs/libc/libc.a(lib_atol.o)
 .comment       0x00000044       0x45 NuttX/nuttx/libs/libc/libc.a(lib_strtol.o)
 .comment       0x00000044       0x45 NuttX/nuttx/libs/libc/libc.a(lib_strtoul.o)
 .comment       0x00000044       0x45 NuttX/nuttx/libs/libc/libc.a(lib_checkbase.o)
 .comment       0x00000044       0x45 NuttX/nuttx/libs/libc/libc.a(lib_memoutstream.o)
 .comment       0x00000044       0x45 NuttX/nuttx/libs/libc/libc.a(lib_nulloutstream.o)
 .comment       0x00000044       0x45 NuttX/nuttx/libs/libc/libc.a(lib_isbasedigit.o)
 .comment       0x00000044       0x45 NuttX/nuttx/libs/libc/libc.a(lib_skipspace.o)
 .comment       0x00000044       0x45 NuttX/nuttx/libs/libc/libc.a(lib_strdup.o)
 .comment       0x00000044       0x45 NuttX/nuttx/libs/libc/libc.a(lib_strtok.o)
 .comment       0x00000044       0x45 NuttX/nuttx/libs/libc/libc.a(lib_strtokr.o)
 .comment       0x00000044       0x45 NuttX/nuttx/libs/libc/libc.a(lib_strchr.o)
 .comment       0x00000044       0x45 NuttX/nuttx/libs/libc/libc.a(lib_tcgetattr.o)
 .comment       0x00000044       0x45 NuttX/nuttx/libs/libc/libc.a(lib_tcsetattr.o)
 .comment       0x00000044       0x45 NuttX/nuttx/libs/libc/libc.a(task_getinfo.o)
 .comment       0x00000044       0x45 NuttX/nuttx/libs/libc/libc.a(lib_isspace.o)
 .comment       0x00000044       0x45 NuttX/nuttx/libs/libc/libc.a(lib_tcflush.o)
 .comment       0x00000044       0x45 NuttX/nuttx/libs/libc/libc.a(lib_tcdrain.o)
 .comment       0x00000044       0x45 NuttX/nuttx/fs/libfs.a(fs_ioctl.o)
 .comment       0x00000044       0x45 NuttX/nuttx/fs/libfs.a(fs_inodegetpath.o)
 .comment       0x00000044       0x45 NuttX/nuttx/sched/libsched.a(sched_processtimer.o)
 .comment       0x00000044       0x45 NuttX/nuttx/libs/libc/libc.a(lib_strcat.o)
 .comment       0x00000044       0x45 platforms/nuttx/src/bootloader/stm/stm32h7/arch_bootloader/libarch_bootloader.a(main.c.obj)
 .comment       0x00000044       0x45 platforms/nuttx/src/bootloader/stm/stm32h7/arch_bootloader/libarch_bootloader.a(systick.c.obj)
 .comment       0x00000044       0x45 platforms/nuttx/src/px4/stm/stm32h7/board_reset/libarch_board_reset.a(board_reset.cpp.obj)
 .comment       0x00000044       0x45 NuttX/nuttx/arch/arm/src/libarch.a(stm32_flash.o)
 .comment       0x00000044       0x45 NuttX/nuttx/arch/arm/src/libarch.a(arm_systemreset.o)
 .comment       0x00000044       0x45 platforms/nuttx/src/bootloader/common/lib/libbootloader_lib.a(flash_cache.c.obj)

.ARM.attributes
                0x00000000       0x30
 .ARM.attributes
                0x00000000       0x32 NuttX/nuttx/arch/arm/src/libarch.a(arm_vectors.o)
 .ARM.attributes
                0x00000032       0x1e NuttX/nuttx/arch/arm/src/libarch.a(arm_exception.o)
 .ARM.attributes
                0x00000050       0x32 NuttX/nuttx/arch/arm/src/libarch.a(stm32_start.o)
 .ARM.attributes
                0x00000082       0x32 NuttX/nuttx/arch/arm/src/libarch.a(stm32_rcc.o)
 .ARM.attributes
                0x000000b4       0x32 NuttX/nuttx/arch/arm/src/libarch.a(stm32_lowputc.o)
 .ARM.attributes
                0x000000e6       0x32 NuttX/nuttx/arch/arm/src/libarch.a(stm32_pwr.o)
 .ARM.attributes
                0x00000118       0x32 NuttX/nuttx/arch/arm/src/libarch.a(arm_modifyreg32.o)
 .ARM.attributes
                0x0000014a       0x32 NuttX/nuttx/arch/arm/src/libarch.a(arm_udelay.o)
 .ARM.attributes
                0x0000017c       0x32 NuttX/nuttx/arch/arm/src/libarch.a(arm_cache.o)
 .ARM.attributes
                0x000001ae       0x32 NuttX/nuttx/arch/arm/src/libarch.a(arm_doirq.o)
 .ARM.attributes
                0x000001e0       0x32 NuttX/nuttx/arch/arm/src/libarch.a(arm_fpuconfig.o)
 .ARM.attributes
                0x00000212       0x32 NuttX/nuttx/arch/arm/src/libarch.a(stm32_irq.o)
 .ARM.attributes
                0x00000244       0x32 NuttX/nuttx/arch/arm/src/libarch.a(arm_hardfault.o)
 .ARM.attributes
                0x00000276       0x32 NuttX/nuttx/arch/arm/src/libarch.a(arm_svcall.o)
 .ARM.attributes
                0x000002a8       0x1e NuttX/nuttx/libs/libc/libc.a(arch_memcpy.o)
 .ARM.attributes
                0x000002c6       0x32 NuttX/nuttx/libs/libc/libc.a(lib_assert.o)
 .ARM.attributes
                0x000002f8       0x32 NuttX/nuttx/libs/libc/libc.a(lib_abort.o)
 .ARM.attributes
                0x0000032a       0x32 NuttX/nuttx/libs/libc/libc.a(lib_exit.o)
 .ARM.attributes
                0x0000035c       0x32 NuttX/nuttx/libs/libc/libc.a(lib_memset.o)
 .ARM.attributes
                0x0000038e       0x32 boards/hkust/nxt-dual/src/libdrivers_board.a(bootloader_main.c.obj)
 .ARM.attributes
                0x000003c0       0x32 boards/hkust/nxt-dual/src/libdrivers_board.a(usb.c.obj)
 .ARM.attributes
                0x000003f2       0x32 NuttX/nuttx/sched/libsched.a(nx_start.o)
 .ARM.attributes
                0x00000424       0x32 NuttX/nuttx/sched/libsched.a(nx_bringup.o)
 .ARM.attributes
                0x00000456       0x32 NuttX/nuttx/sched/libsched.a(irq_attach.o)
 .ARM.attributes
                0x00000488       0x32 NuttX/nuttx/sched/libsched.a(irq_dispatch.o)
 .ARM.attributes
                0x000004ba       0x32 NuttX/nuttx/sched/libsched.a(irq_unexpectedisr.o)
 .ARM.attributes
                0x000004ec       0x32 NuttX/nuttx/sched/libsched.a(sched_lock.o)
 .ARM.attributes
                0x0000051e       0x32 NuttX/nuttx/sched/libsched.a(sched_unlock.o)
 .ARM.attributes
                0x00000550       0x32 NuttX/nuttx/sched/libsched.a(task_create.o)
 .ARM.attributes
                0x00000582       0x32 NuttX/nuttx/sched/libsched.a(task_init.o)
 .ARM.attributes
                0x000005b4       0x32 NuttX/nuttx/sched/libsched.a(task_setup.o)
 .ARM.attributes
                0x000005e6       0x32 NuttX/nuttx/sched/libsched.a(task_activate.o)
 .ARM.attributes
                0x00000618       0x32 NuttX/nuttx/sched/libsched.a(task_start.o)
 .ARM.attributes
                0x0000064a       0x32 NuttX/nuttx/sched/libsched.a(exit.o)
 .ARM.attributes
                0x0000067c       0x32 NuttX/nuttx/sched/libsched.a(tls_initinfo.o)
 .ARM.attributes
                0x000006ae       0x32 NuttX/nuttx/sched/libsched.a(group_create.o)
 .ARM.attributes
                0x000006e0       0x32 NuttX/nuttx/sched/libsched.a(group_leave.o)
 .ARM.attributes
                0x00000712       0x32 NuttX/nuttx/sched/libsched.a(group_setupidlefiles.o)
 .ARM.attributes
                0x00000744       0x32 NuttX/nuttx/sched/libsched.a(group_setuptaskfiles.o)
 .ARM.attributes
                0x00000776       0x32 NuttX/nuttx/sched/libsched.a(irq_initialize.o)
 .ARM.attributes
                0x000007a8       0x32 NuttX/nuttx/sched/libsched.a(sched_releasetcb.o)
 .ARM.attributes
                0x000007da       0x32 NuttX/nuttx/sched/libsched.a(sig_procmask.o)
 .ARM.attributes
                0x0000080c       0x32 NuttX/nuttx/sched/libsched.a(sig_unmaskpendingsignal.o)
 .ARM.attributes
                0x0000083e       0x32 NuttX/nuttx/sched/libsched.a(sig_removependingsignal.o)
 .ARM.attributes
                0x00000870       0x32 NuttX/nuttx/sched/libsched.a(sig_releasependingsignal.o)
 .ARM.attributes
                0x000008a2       0x32 NuttX/nuttx/sched/libsched.a(sig_lowest.o)
 .ARM.attributes
                0x000008d4       0x32 NuttX/nuttx/sched/libsched.a(sig_cleanup.o)
 .ARM.attributes
                0x00000906       0x32 NuttX/nuttx/sched/libsched.a(sig_dispatch.o)
 .ARM.attributes
                0x00000938       0x32 NuttX/nuttx/sched/libsched.a(sig_deliver.o)
 .ARM.attributes
                0x0000096a       0x32 NuttX/nuttx/sched/libsched.a(sig_default.o)
 .ARM.attributes
                0x0000099c       0x32 NuttX/nuttx/sched/libsched.a(task_exithook.o)
 .ARM.attributes
                0x000009ce       0x32 NuttX/nuttx/sched/libsched.a(task_recover.o)
 .ARM.attributes
                0x00000a00       0x32 NuttX/nuttx/sched/libsched.a(task_initinfo.o)
 .ARM.attributes
                0x00000a32       0x32 NuttX/nuttx/sched/libsched.a(task_uninitinfo.o)
 .ARM.attributes
                0x00000a64       0x32 NuttX/nuttx/sched/libsched.a(wd_recover.o)
 .ARM.attributes
                0x00000a96       0x32 NuttX/nuttx/sched/libsched.a(group_setupstreams.o)
 .ARM.attributes
                0x00000ac8       0x32 NuttX/nuttx/sched/libsched.a(sched_gettcb.o)
 .ARM.attributes
                0x00000afa       0x32 NuttX/nuttx/sched/libsched.a(sched_suspend.o)
 .ARM.attributes
                0x00000b2c       0x32 NuttX/nuttx/sched/libsched.a(sched_continue.o)
 .ARM.attributes
                0x00000b5e       0x32 NuttX/nuttx/sched/libsched.a(sem_destroy.o)
 .ARM.attributes
                0x00000b90       0x32 NuttX/nuttx/sched/libsched.a(sem_recover.o)
 .ARM.attributes
                0x00000bc2       0x32 NuttX/nuttx/sched/libsched.a(sem_waitirq.o)
 .ARM.attributes
                0x00000bf4       0x32 NuttX/nuttx/sched/libsched.a(sig_initialize.o)
 .ARM.attributes
                0x00000c26       0x32 NuttX/nuttx/sched/libsched.a(sig_action.o)
 .ARM.attributes
                0x00000c58       0x32 NuttX/nuttx/sched/libsched.a(sig_pending.o)
 .ARM.attributes
                0x00000c8a       0x32 NuttX/nuttx/sched/libsched.a(sig_findaction.o)
 .ARM.attributes
                0x00000cbc       0x32 NuttX/nuttx/sched/libsched.a(sig_allocpendingsigaction.o)
 .ARM.attributes
                0x00000cee       0x32 NuttX/nuttx/sched/libsched.a(sig_releasependingsigaction.o)
 .ARM.attributes
                0x00000d20       0x32 NuttX/nuttx/sched/libsched.a(wd_cancel.o)
 .ARM.attributes
                0x00000d52       0x32 NuttX/nuttx/sched/libsched.a(sched_addblocked.o)
 .ARM.attributes
                0x00000d84       0x32 NuttX/nuttx/sched/libsched.a(sched_removeblocked.o)
 .ARM.attributes
                0x00000db6       0x32 NuttX/nuttx/sched/libsched.a(wd_initialize.o)
 .ARM.attributes
                0x00000de8       0x32 NuttX/nuttx/sched/libsched.a(sched_addprioritized.o)
 .ARM.attributes
                0x00000e1a       0x32 NuttX/nuttx/binfmt/libbinfmt.a(binfmt_initialize.o)
 .ARM.attributes
                0x00000e4c       0x32 NuttX/apps/libapps.a(cdcacm_main.c.Users.carbs.Desktop.PX4-Autopilot.platforms.nuttx.NuttX.apps.system.cdcacm.o)
 .ARM.attributes
                0x00000e7e       0x32 NuttX/nuttx/arch/arm/src/libarch.a(stm32_allocateheap.o)
 .ARM.attributes
                0x00000eb0       0x32 NuttX/nuttx/arch/arm/src/libarch.a(stm32_gpio.o)
 .ARM.attributes
                0x00000ee2       0x32 NuttX/nuttx/arch/arm/src/libarch.a(arm_assert.o)
 .ARM.attributes
                0x00000f14       0x32 NuttX/nuttx/arch/arm/src/libarch.a(arm_blocktask.o)
 .ARM.attributes
                0x00000f46       0x32 NuttX/nuttx/arch/arm/src/libarch.a(arm_createstack.o)
 .ARM.attributes
                0x00000f78       0x32 NuttX/nuttx/arch/arm/src/libarch.a(arm_exit.o)
 .ARM.attributes
                0x00000faa       0x32 NuttX/nuttx/arch/arm/src/libarch.a(arm_fullcontextrestore.o)
 .ARM.attributes
                0x00000fdc       0x32 NuttX/nuttx/arch/arm/src/libarch.a(arm_initialize.o)
 .ARM.attributes
                0x0000100e       0x32 NuttX/nuttx/arch/arm/src/libarch.a(arm_releasepending.o)
 .ARM.attributes
                0x00001040       0x32 NuttX/nuttx/arch/arm/src/libarch.a(arm_releasestack.o)
 .ARM.attributes
                0x00001072       0x32 NuttX/nuttx/arch/arm/src/libarch.a(arm_stackframe.o)
 .ARM.attributes
                0x000010a4       0x32 NuttX/nuttx/arch/arm/src/libarch.a(arm_switchcontext.o)
 .ARM.attributes
                0x000010d6       0x32 NuttX/nuttx/arch/arm/src/libarch.a(arm_unblocktask.o)
 .ARM.attributes
                0x00001108       0x32 NuttX/nuttx/arch/arm/src/libarch.a(arm_usestack.o)
 .ARM.attributes
                0x0000113a       0x32 NuttX/nuttx/arch/arm/src/libarch.a(arm_checkstack.o)
 .ARM.attributes
                0x0000116c       0x32 NuttX/nuttx/arch/arm/src/libarch.a(arm_idle.o)
 .ARM.attributes
                0x0000119e       0x32 NuttX/nuttx/arch/arm/src/libarch.a(arm_initialstate.o)
 .ARM.attributes
                0x000011d0       0x32 NuttX/nuttx/arch/arm/src/libarch.a(arm_schedulesigaction.o)
 .ARM.attributes
                0x00001202       0x32 NuttX/nuttx/arch/arm/src/libarch.a(arm_sigdeliver.o)
 .ARM.attributes
                0x00001234       0x32 NuttX/nuttx/arch/arm/src/libarch.a(stm32_serial.o)
 .ARM.attributes
                0x00001266       0x32 NuttX/nuttx/arch/arm/src/libarch.a(stm32_otgdev.o)
 .ARM.attributes
                0x00001298       0x32 NuttX/nuttx/arch/arm/src/libarch.a(arm_mdelay.o)
 .ARM.attributes
                0x000012ca       0x32 NuttX/nuttx/mm/libmm.a(umm_initialize.o)
 .ARM.attributes
                0x000012fc       0x32 NuttX/nuttx/mm/libmm.a(umm_free.o)
 .ARM.attributes
                0x0000132e       0x32 NuttX/nuttx/mm/libmm.a(umm_malloc.o)
 .ARM.attributes
                0x00001360       0x32 NuttX/nuttx/mm/libmm.a(umm_zalloc.o)
 .ARM.attributes
                0x00001392       0x32 NuttX/nuttx/mm/libmm.a(mm_initialize.o)
 .ARM.attributes
                0x000013c4       0x32 NuttX/nuttx/mm/libmm.a(mm_sem.o)
 .ARM.attributes
                0x000013f6       0x32 NuttX/nuttx/mm/libmm.a(mm_addfreechunk.o)
 .ARM.attributes
                0x00001428       0x32 NuttX/nuttx/mm/libmm.a(mm_size2ndx.o)
 .ARM.attributes
                0x0000145a       0x32 NuttX/nuttx/mm/libmm.a(mm_free.o)
 .ARM.attributes
                0x0000148c       0x32 NuttX/nuttx/mm/libmm.a(mm_malloc.o)
 .ARM.attributes
                0x000014be       0x32 NuttX/nuttx/mm/libmm.a(mm_zalloc.o)
 .ARM.attributes
                0x000014f0       0x32 NuttX/nuttx/mm/libmm.a(umm_globals.o)
 .ARM.attributes
                0x00001522       0x32 NuttX/nuttx/libs/libc/libc.a(lib_errno.o)
 .ARM.attributes
                0x00001554       0x32 NuttX/nuttx/libs/libc/libc.a(sq_addlast.o)
 .ARM.attributes
                0x00001586       0x32 NuttX/nuttx/libs/libc/libc.a(sq_rem.o)
 .ARM.attributes
                0x000015b8       0x32 NuttX/nuttx/libs/libc/libc.a(sq_remfirst.o)
 .ARM.attributes
                0x000015ea       0x32 NuttX/nuttx/libs/libc/libc.a(sq_remafter.o)
 .ARM.attributes
                0x0000161c       0x32 NuttX/nuttx/libs/libc/libc.a(dq_addlast.o)
 .ARM.attributes
                0x0000164e       0x32 NuttX/nuttx/libs/libc/libc.a(dq_addfirst.o)
 .ARM.attributes
                0x00001680       0x32 NuttX/nuttx/libs/libc/libc.a(dq_rem.o)
 .ARM.attributes
                0x000016b2       0x32 NuttX/nuttx/libs/libc/libc.a(task_startup.o)
 .ARM.attributes
                0x000016e4       0x32 NuttX/nuttx/libs/libc/libc.a(sem_init.o)
 .ARM.attributes
                0x00001716       0x32 NuttX/nuttx/libs/libc/libc.a(sem_getvalue.o)
 .ARM.attributes
                0x00001748       0x32 NuttX/nuttx/libs/libc/libc.a(sig_addset.o)
 .ARM.attributes
                0x0000177a       0x32 NuttX/nuttx/libs/libc/libc.a(sig_delset.o)
 .ARM.attributes
                0x000017ac       0x32 NuttX/nuttx/libs/libc/libc.a(sig_emptyset.o)
 .ARM.attributes
                0x000017de       0x32 NuttX/nuttx/libs/libc/libc.a(sig_ismember.o)
 .ARM.attributes
                0x00001810       0x32 NuttX/nuttx/libs/libc/libc.a(lib_printf.o)
 .ARM.attributes
                0x00001842       0x32 NuttX/nuttx/libs/libc/libc.a(lib_libflushall.o)
 .ARM.attributes
                0x00001874       0x32 NuttX/nuttx/libs/libc/libc.a(lib_libfflush.o)
 .ARM.attributes
                0x000018a6       0x32 NuttX/nuttx/libs/libc/libc.a(lib_vfprintf.o)
 .ARM.attributes
                0x000018d8       0x32 NuttX/nuttx/libs/libc/libc.a(lib_libstream.o)
 .ARM.attributes
                0x0000190a       0x32 NuttX/nuttx/libs/libc/libc.a(lib_libfilesem.o)
 .ARM.attributes
                0x0000193c       0x32 NuttX/nuttx/libs/libc/libc.a(lib_stdoutstream.o)
 .ARM.attributes
                0x0000196e       0x32 NuttX/nuttx/libs/libc/libc.a(lib_strcpy.o)
 .ARM.attributes
                0x000019a0       0x32 NuttX/nuttx/libs/libc/libc.a(lib_strlcpy.o)
 .ARM.attributes
                0x000019d2       0x32 NuttX/nuttx/libs/libc/libc.a(lib_strlen.o)
 .ARM.attributes
                0x00001a04       0x32 NuttX/nuttx/libs/libc/libc.a(lib_strncpy.o)
 .ARM.attributes
                0x00001a36       0x32 NuttX/nuttx/libs/libc/libc.a(lib_cfspeed.o)
 .ARM.attributes
                0x00001a68       0x32 NuttX/nuttx/libs/libc/libc.a(tls_getinfo.o)
 .ARM.attributes
                0x00001a9a       0x32 NuttX/nuttx/libs/libc/libc.a(lib_cxx_initialize.o)
 .ARM.attributes
                0x00001acc       0x32 NuttX/nuttx/libs/libc/libc.a(lib_libvsprintf.o)
 .ARM.attributes
                0x00001afe       0x32 NuttX/nuttx/libs/libc/libc.a(lib_ultoa_invert.o)
 .ARM.attributes
                0x00001b30       0x32 NuttX/nuttx/libs/libc/libc.a(lib_dtoa_engine.o)
 .ARM.attributes
                0x00001b62       0x32 NuttX/nuttx/libs/libc/libc.a(lib_dtoa_data.o)
 .ARM.attributes
                0x00001b94       0x32 NuttX/nuttx/libs/libc/libc.a(lib_fputc.o)
 .ARM.attributes
                0x00001bc6       0x32 NuttX/nuttx/libs/libc/libc.a(lib_libnoflush.o)
 .ARM.attributes
                0x00001bf8       0x32 NuttX/nuttx/libs/libc/libc.a(lib_strnlen.o)
 .ARM.attributes
                0x00001c2a       0x32 NuttX/nuttx/libs/libc/libc.a(lib_libfwrite.o)
 .ARM.attributes
                0x00001c5c       0x32 NuttX/nuttx/libs/libc/libc.a(lib_rdflush.o)
 .ARM.attributes
                0x00001c8e       0x32 NuttX/nuttx/libs/libc/libc.a(lib_fseek.o)
 .ARM.attributes
                0x00001cc0       0x32 NuttX/nuttx/libs/libc/libc.a(lib_fseeko.o)
 .ARM.attributes
                0x00001cf2       0x32 NuttX/nuttx/libs/libc/libc.a(lib_wrflush.o)
 .ARM.attributes
                0x00001d24       0x32 platforms/nuttx/src/bootloader/common/libbootloader.a(bl.c.obj)
 .ARM.attributes
                0x00001d56       0x32 platforms/nuttx/src/bootloader/common/lib/libbootloader_lib.a(cdcacm.c.obj)
 .ARM.attributes
                0x00001d88       0x32 platforms/nuttx/src/bootloader/common/lib/libbootloader_lib.a(uart.c.obj)
 .ARM.attributes
                0x00001dba       0x32 NuttX/nuttx/boards/libboards.a(boardctl.o)
 .ARM.attributes
                0x00001dec       0x32 NuttX/nuttx/drivers/libdrivers.a(drivers_initialize.o)
 .ARM.attributes
                0x00001e1e       0x32 NuttX/nuttx/drivers/libdrivers.a(dev_null.o)
 .ARM.attributes
                0x00001e50       0x32 NuttX/nuttx/drivers/libdrivers.a(serial.o)
 .ARM.attributes
                0x00001e82       0x32 NuttX/nuttx/drivers/libdrivers.a(serial_io.o)
 .ARM.attributes
                0x00001eb4       0x32 NuttX/nuttx/drivers/libdrivers.a(syslog_flush.o)
 .ARM.attributes
                0x00001ee6       0x32 NuttX/nuttx/drivers/libdrivers.a(syslog_initialize.o)
 .ARM.attributes
                0x00001f18       0x32 NuttX/nuttx/drivers/libdrivers.a(cdcacm.o)
 .ARM.attributes
                0x00001f4a       0x32 NuttX/nuttx/drivers/libdrivers.a(cdcacm_desc.o)
 .ARM.attributes
                0x00001f7c       0x32 NuttX/nuttx/drivers/libdrivers.a(syslog_channel.o)
 .ARM.attributes
                0x00001fae       0x32 NuttX/nuttx/fs/libfs.a(fs_initialize.o)
 .ARM.attributes
                0x00001fe0       0x32 NuttX/nuttx/fs/libfs.a(fs_files.o)
 .ARM.attributes
                0x00002012       0x32 NuttX/nuttx/fs/libfs.a(fs_inode.o)
 .ARM.attributes
                0x00002044       0x32 NuttX/nuttx/fs/libfs.a(fs_inodereserve.o)
 .ARM.attributes
                0x00002076       0x32 NuttX/nuttx/fs/libfs.a(fs_inodesearch.o)
 .ARM.attributes
                0x000020a8       0x32 NuttX/nuttx/fs/libfs.a(fs_close.o)
 .ARM.attributes
                0x000020da       0x32 NuttX/nuttx/fs/libfs.a(fs_lseek.o)
 .ARM.attributes
                0x0000210c       0x32 NuttX/nuttx/fs/libfs.a(fs_open.o)
 .ARM.attributes
                0x0000213e       0x32 NuttX/nuttx/fs/libfs.a(fs_read.o)
 .ARM.attributes
                0x00002170       0x32 NuttX/nuttx/fs/libfs.a(fs_write.o)
 .ARM.attributes
                0x000021a2       0x32 NuttX/nuttx/fs/libfs.a(fs_dir.o)
 .ARM.attributes
                0x000021d4       0x32 NuttX/nuttx/fs/libfs.a(fs_fdopen.o)
 .ARM.attributes
                0x00002206       0x32 NuttX/nuttx/fs/libfs.a(fs_registerdriver.o)
 .ARM.attributes
                0x00002238       0x32 NuttX/nuttx/fs/libfs.a(fs_unregisterdriver.o)
 .ARM.attributes
                0x0000226a       0x32 NuttX/nuttx/fs/libfs.a(fs_inodeaddref.o)
 .ARM.attributes
                0x0000229c       0x32 NuttX/nuttx/fs/libfs.a(fs_inodefind.o)
 .ARM.attributes
                0x000022ce       0x32 NuttX/nuttx/fs/libfs.a(fs_inoderelease.o)
 .ARM.attributes
                0x00002300       0x32 NuttX/nuttx/fs/libfs.a(fs_inoderemove.o)
 .ARM.attributes
                0x00002332       0x32 NuttX/nuttx/fs/libfs.a(fs_inodefree.o)
 .ARM.attributes
                0x00002364       0x32 NuttX/nuttx/sched/libsched.a(clock_initialize.o)
 .ARM.attributes
                0x00002396       0x32 NuttX/nuttx/sched/libsched.a(sched_getfiles.o)
 .ARM.attributes
                0x000023c8       0x32 NuttX/nuttx/sched/libsched.a(sched_addreadytorun.o)
 .ARM.attributes
                0x000023fa       0x32 NuttX/nuttx/sched/libsched.a(sched_removereadytorun.o)
 .ARM.attributes
                0x0000242c       0x32 NuttX/nuttx/sched/libsched.a(sched_mergepending.o)
 .ARM.attributes
                0x0000245e       0x32 NuttX/nuttx/sched/libsched.a(sched_getstreams.o)
 .ARM.attributes
                0x00002490       0x32 NuttX/nuttx/sched/libsched.a(sched_idletask.o)
 .ARM.attributes
                0x000024c2       0x32 NuttX/nuttx/sched/libsched.a(sched_self.o)
 .ARM.attributes
                0x000024f4       0x32 NuttX/nuttx/sched/libsched.a(sched_get_stackinfo.o)
 .ARM.attributes
                0x00002526       0x32 NuttX/nuttx/sched/libsched.a(sem_wait.o)
 .ARM.attributes
                0x00002558       0x32 NuttX/nuttx/sched/libsched.a(sem_post.o)
 .ARM.attributes
                0x0000258a       0x32 NuttX/nuttx/sched/libsched.a(sem_reset.o)
 .ARM.attributes
                0x000025bc       0x32 NuttX/nuttx/sched/libsched.a(sig_kill.o)
 .ARM.attributes
                0x000025ee       0x32 NuttX/nuttx/sched/libsched.a(sig_usleep.o)
 .ARM.attributes
                0x00002620       0x32 NuttX/nuttx/sched/libsched.a(task_exit.o)
 .ARM.attributes
                0x00002652       0x32 NuttX/nuttx/sched/libsched.a(task_getpid.o)
 .ARM.attributes
                0x00002684       0x32 NuttX/nuttx/sched/libsched.a(task_terminate.o)
 .ARM.attributes
                0x000026b6       0x32 NuttX/nuttx/sched/libsched.a(task_gettid.o)
 .ARM.attributes
                0x000026e8       0x32 NuttX/nuttx/sched/libsched.a(wd_start.o)
 .ARM.attributes
                0x0000271a       0x32 NuttX/nuttx/sched/libsched.a(sig_nanosleep.o)
 .ARM.attributes
                0x0000274c       0x32 NuttX/nuttx/sched/libsched.a(sig_timedwait.o)
 .ARM.attributes
                0x0000277e       0x32 NuttX/nuttx/arch/arm/src/libarch.a(stm32_timerisr.o)
 .ARM.attributes
                0x000027b0       0x32 NuttX/nuttx/arch/arm/src/libarch.a(arm_nputs.o)
 .ARM.attributes
                0x000027e2       0x32 NuttX/nuttx/mm/libmm.a(umm_realloc.o)
 .ARM.attributes
                0x00002814       0x32 NuttX/nuttx/mm/libmm.a(mm_realloc.o)
 .ARM.attributes
                0x00002846       0x32 NuttX/nuttx/mm/libmm.a(mm_shrinkchunk.o)
 .ARM.attributes
                0x00002878       0x32 NuttX/nuttx/libs/libc/libc.a(lib_umask.o)
 .ARM.attributes
                0x000028aa       0x32 NuttX/nuttx/libs/libc/libc.a(sq_addfirst.o)
 .ARM.attributes
                0x000028dc       0x32 NuttX/nuttx/libs/libc/libc.a(sq_addafter.o)
 .ARM.attributes
                0x0000290e       0x32 NuttX/nuttx/libs/libc/libc.a(clock_ticks2time.o)
 .ARM.attributes
                0x00002940       0x32 NuttX/nuttx/libs/libc/libc.a(clock_time2ticks.o)
 .ARM.attributes
                0x00002972       0x32 NuttX/nuttx/libs/libc/libc.a(sem_setprotocol.o)
 .ARM.attributes
                0x000029a4       0x32 NuttX/nuttx/libs/libc/libc.a(lib_asprintf.o)
 .ARM.attributes
                0x000029d6       0x32 NuttX/nuttx/libs/libc/libc.a(lib_snprintf.o)
 .ARM.attributes
                0x00002a08       0x32 NuttX/nuttx/libs/libc/libc.a(lib_vasprintf.o)
 .ARM.attributes
                0x00002a3a       0x32 NuttX/nuttx/libs/libc/libc.a(lib_atol.o)
 .ARM.attributes
                0x00002a6c       0x32 NuttX/nuttx/libs/libc/libc.a(lib_strtol.o)
 .ARM.attributes
                0x00002a9e       0x32 NuttX/nuttx/libs/libc/libc.a(lib_strtoul.o)
 .ARM.attributes
                0x00002ad0       0x32 NuttX/nuttx/libs/libc/libc.a(lib_checkbase.o)
 .ARM.attributes
                0x00002b02       0x32 NuttX/nuttx/libs/libc/libc.a(lib_memoutstream.o)
 .ARM.attributes
                0x00002b34       0x32 NuttX/nuttx/libs/libc/libc.a(lib_nulloutstream.o)
 .ARM.attributes
                0x00002b66       0x32 NuttX/nuttx/libs/libc/libc.a(lib_isbasedigit.o)
 .ARM.attributes
                0x00002b98       0x32 NuttX/nuttx/libs/libc/libc.a(lib_skipspace.o)
 .ARM.attributes
                0x00002bca       0x32 NuttX/nuttx/libs/libc/libc.a(lib_strdup.o)
 .ARM.attributes
                0x00002bfc       0x32 NuttX/nuttx/libs/libc/libc.a(lib_strtok.o)
 .ARM.attributes
                0x00002c2e       0x32 NuttX/nuttx/libs/libc/libc.a(lib_strtokr.o)
 .ARM.attributes
                0x00002c60       0x32 NuttX/nuttx/libs/libc/libc.a(lib_strchr.o)
 .ARM.attributes
                0x00002c92       0x32 NuttX/nuttx/libs/libc/libc.a(lib_tcgetattr.o)
 .ARM.attributes
                0x00002cc4       0x32 NuttX/nuttx/libs/libc/libc.a(lib_tcsetattr.o)
 .ARM.attributes
                0x00002cf6       0x32 NuttX/nuttx/libs/libc/libc.a(task_getinfo.o)
 .ARM.attributes
                0x00002d28       0x32 NuttX/nuttx/libs/libc/libc.a(lib_isspace.o)
 .ARM.attributes
                0x00002d5a       0x32 NuttX/nuttx/libs/libc/libc.a(lib_tcflush.o)
 .ARM.attributes
                0x00002d8c       0x32 NuttX/nuttx/libs/libc/libc.a(lib_tcdrain.o)
 .ARM.attributes
                0x00002dbe       0x32 NuttX/nuttx/fs/libfs.a(fs_ioctl.o)
 .ARM.attributes
                0x00002df0       0x32 NuttX/nuttx/fs/libfs.a(fs_inodegetpath.o)
 .ARM.attributes
                0x00002e22       0x32 NuttX/nuttx/sched/libsched.a(sched_processtimer.o)
 .ARM.attributes
                0x00002e54       0x32 NuttX/nuttx/libs/libc/libc.a(lib_strcat.o)
 .ARM.attributes
                0x00002e86       0x20 /opt/homebrew/Cellar/arm-gcc-bin@13/13.2.rel1/bin/../lib/gcc/arm-none-eabi/13.2.1/thumb/v7e-m+dp/hard/libgcc.a(_aeabi_ldivmod.o)
 .ARM.attributes
                0x00002ea6       0x20 /opt/homebrew/Cellar/arm-gcc-bin@13/13.2.rel1/bin/../lib/gcc/arm-none-eabi/13.2.1/thumb/v7e-m+dp/hard/libgcc.a(_aeabi_uldivmod.o)
 .ARM.attributes
                0x00002ec6       0x32 /opt/homebrew/Cellar/arm-gcc-bin@13/13.2.rel1/bin/../lib/gcc/arm-none-eabi/13.2.1/thumb/v7e-m+dp/hard/libgcc.a(_fixunsdfdi.o)
 .ARM.attributes
                0x00002ef8       0x32 /opt/homebrew/Cellar/arm-gcc-bin@13/13.2.rel1/bin/../lib/gcc/arm-none-eabi/13.2.1/thumb/v7e-m+dp/hard/libgcc.a(_udivmoddi4.o)
 .ARM.attributes
                0x00002f2a       0x20 /opt/homebrew/Cellar/arm-gcc-bin@13/13.2.rel1/bin/../lib/gcc/arm-none-eabi/13.2.1/thumb/v7e-m+dp/hard/libgcc.a(_dvmd_tls.o)
 .ARM.attributes
                0x00002f4a       0x32 platforms/nuttx/src/bootloader/stm/stm32h7/arch_bootloader/libarch_bootloader.a(main.c.obj)
 .ARM.attributes
                0x00002f7c       0x32 platforms/nuttx/src/bootloader/stm/stm32h7/arch_bootloader/libarch_bootloader.a(systick.c.obj)
 .ARM.attributes
                0x00002fae       0x32 platforms/nuttx/src/px4/stm/stm32h7/board_reset/libarch_board_reset.a(board_reset.cpp.obj)
 .ARM.attributes
                0x00002fe0       0x32 NuttX/nuttx/arch/arm/src/libarch.a(stm32_flash.o)
 .ARM.attributes
                0x00003012       0x32 NuttX/nuttx/arch/arm/src/libarch.a(arm_systemreset.o)
 .ARM.attributes
                0x00003044       0x32 platforms/nuttx/src/bootloader/common/lib/libbootloader_lib.a(flash_cache.c.obj)

.debug_abbrev   0x00000000    0x1ad2a
 *(.debug_abbrev)
 .debug_abbrev  0x00000000       0x82 NuttX/nuttx/arch/arm/src/libarch.a(arm_vectors.o)
 .debug_abbrev  0x00000082       0x28 NuttX/nuttx/arch/arm/src/libarch.a(arm_exception.o)
 .debug_abbrev  0x000000aa      0x145 NuttX/nuttx/arch/arm/src/libarch.a(stm32_start.o)
 .debug_abbrev  0x000001ef      0x1ad NuttX/nuttx/arch/arm/src/libarch.a(stm32_rcc.o)
 .debug_abbrev  0x0000039c       0x6d NuttX/nuttx/arch/arm/src/libarch.a(stm32_lowputc.o)
 .debug_abbrev  0x00000409      0x2c4 NuttX/nuttx/arch/arm/src/libarch.a(stm32_pwr.o)
 .debug_abbrev  0x000006cd      0x17f NuttX/nuttx/arch/arm/src/libarch.a(arm_modifyreg32.o)
 .debug_abbrev  0x0000084c       0x7e NuttX/nuttx/arch/arm/src/libarch.a(arm_udelay.o)
 .debug_abbrev  0x000008ca       0xf9 NuttX/nuttx/arch/arm/src/libarch.a(arm_cache.o)
 .debug_abbrev  0x000009c3       0xf3 NuttX/nuttx/arch/arm/src/libarch.a(arm_doirq.o)
 .debug_abbrev  0x00000ab6       0xf0 NuttX/nuttx/arch/arm/src/libarch.a(arm_fpuconfig.o)
 .debug_abbrev  0x00000ba6      0x284 NuttX/nuttx/arch/arm/src/libarch.a(stm32_irq.o)
 .debug_abbrev  0x00000e2a      0x1bf NuttX/nuttx/arch/arm/src/libarch.a(arm_hardfault.o)
 .debug_abbrev  0x00000fe9      0x14f NuttX/nuttx/arch/arm/src/libarch.a(arm_svcall.o)
 .debug_abbrev  0x00001138       0x14 NuttX/nuttx/libs/libc/libc.a(arch_memcpy.o)
 .debug_abbrev  0x0000114c       0xbd NuttX/nuttx/libs/libc/libc.a(lib_assert.o)
 .debug_abbrev  0x00001209       0x77 NuttX/nuttx/libs/libc/libc.a(lib_abort.o)
 .debug_abbrev  0x00001280       0xd1 NuttX/nuttx/libs/libc/libc.a(lib_exit.o)
 .debug_abbrev  0x00001351       0x9a NuttX/nuttx/libs/libc/libc.a(lib_memset.o)
 .debug_abbrev  0x000013eb      0x127 boards/hkust/nxt-dual/src/libdrivers_board.a(bootloader_main.c.obj)
 .debug_abbrev  0x00001512      0x17d boards/hkust/nxt-dual/src/libdrivers_board.a(usb.c.obj)
 .debug_abbrev  0x0000168f      0x2fc NuttX/nuttx/sched/libsched.a(nx_start.o)
 .debug_abbrev  0x0000198b      0x1ab NuttX/nuttx/sched/libsched.a(nx_bringup.o)
 .debug_abbrev  0x00001b36      0x26f NuttX/nuttx/sched/libsched.a(irq_attach.o)
 .debug_abbrev  0x00001da5      0x1f9 NuttX/nuttx/sched/libsched.a(irq_dispatch.o)
 .debug_abbrev  0x00001f9e      0x1a3 NuttX/nuttx/sched/libsched.a(irq_unexpectedisr.o)
 .debug_abbrev  0x00002141      0x20f NuttX/nuttx/sched/libsched.a(sched_lock.o)
 .debug_abbrev  0x00002350      0x2f5 NuttX/nuttx/sched/libsched.a(sched_unlock.o)
 .debug_abbrev  0x00002645      0x2d4 NuttX/nuttx/sched/libsched.a(task_create.o)
 .debug_abbrev  0x00002919      0x2cc NuttX/nuttx/sched/libsched.a(task_init.o)
 .debug_abbrev  0x00002be5      0x422 NuttX/nuttx/sched/libsched.a(task_setup.o)
 .debug_abbrev  0x00003007      0x2b3 NuttX/nuttx/sched/libsched.a(task_activate.o)
 .debug_abbrev  0x000032ba      0x233 NuttX/nuttx/sched/libsched.a(task_start.o)
 .debug_abbrev  0x000034ed      0x208 NuttX/nuttx/sched/libsched.a(exit.o)
 .debug_abbrev  0x000036f5      0x1fa NuttX/nuttx/sched/libsched.a(tls_initinfo.o)
 .debug_abbrev  0x000038ef      0x2a1 NuttX/nuttx/sched/libsched.a(group_create.o)
 .debug_abbrev  0x00003b90      0x231 NuttX/nuttx/sched/libsched.a(group_leave.o)
 .debug_abbrev  0x00003dc1      0x1d6 NuttX/nuttx/sched/libsched.a(group_setupidlefiles.o)
 .debug_abbrev  0x00003f97      0x1d6 NuttX/nuttx/sched/libsched.a(group_setuptaskfiles.o)
 .debug_abbrev  0x0000416d      0x125 NuttX/nuttx/sched/libsched.a(irq_initialize.o)
 .debug_abbrev  0x00004292      0x34b NuttX/nuttx/sched/libsched.a(sched_releasetcb.o)
 .debug_abbrev  0x000045dd      0x33a NuttX/nuttx/sched/libsched.a(sig_procmask.o)
 .debug_abbrev  0x00004917      0x240 NuttX/nuttx/sched/libsched.a(sig_unmaskpendingsignal.o)
 .debug_abbrev  0x00004b57      0x297 NuttX/nuttx/sched/libsched.a(sig_removependingsignal.o)
 .debug_abbrev  0x00004dee      0x23a NuttX/nuttx/sched/libsched.a(sig_releasependingsignal.o)
 .debug_abbrev  0x00005028       0xf3 NuttX/nuttx/sched/libsched.a(sig_lowest.o)
 .debug_abbrev  0x0000511b      0x22b NuttX/nuttx/sched/libsched.a(sig_cleanup.o)
 .debug_abbrev  0x00005346      0x48a NuttX/nuttx/sched/libsched.a(sig_dispatch.o)
 .debug_abbrev  0x000057d0      0x35b NuttX/nuttx/sched/libsched.a(sig_deliver.o)
 .debug_abbrev  0x00005b2b      0x478 NuttX/nuttx/sched/libsched.a(sig_default.o)
 .debug_abbrev  0x00005fa3      0x25e NuttX/nuttx/sched/libsched.a(task_exithook.o)
 .debug_abbrev  0x00006201      0x1c8 NuttX/nuttx/sched/libsched.a(task_recover.o)
 .debug_abbrev  0x000063c9      0x1ca NuttX/nuttx/sched/libsched.a(task_initinfo.o)
 .debug_abbrev  0x00006593      0x1bb NuttX/nuttx/sched/libsched.a(task_uninitinfo.o)
 .debug_abbrev  0x0000674e      0x1c0 NuttX/nuttx/sched/libsched.a(wd_recover.o)
 .debug_abbrev  0x0000690e      0x1f1 NuttX/nuttx/sched/libsched.a(group_setupstreams.o)
 .debug_abbrev  0x00006aff      0x2b3 NuttX/nuttx/sched/libsched.a(sched_gettcb.o)
 .debug_abbrev  0x00006db2      0x2db NuttX/nuttx/sched/libsched.a(sched_suspend.o)
 .debug_abbrev  0x0000708d      0x2d1 NuttX/nuttx/sched/libsched.a(sched_continue.o)
 .debug_abbrev  0x0000735e      0x124 NuttX/nuttx/sched/libsched.a(sem_destroy.o)
 .debug_abbrev  0x00007482      0x2bf NuttX/nuttx/sched/libsched.a(sem_recover.o)
 .debug_abbrev  0x00007741      0x2ed NuttX/nuttx/sched/libsched.a(sem_waitirq.o)
 .debug_abbrev  0x00007a2e      0x270 NuttX/nuttx/sched/libsched.a(sig_initialize.o)
 .debug_abbrev  0x00007c9e      0x471 NuttX/nuttx/sched/libsched.a(sig_action.o)
 .debug_abbrev  0x0000810f      0x333 NuttX/nuttx/sched/libsched.a(sig_pending.o)
 .debug_abbrev  0x00008442      0x1b5 NuttX/nuttx/sched/libsched.a(sig_findaction.o)
 .debug_abbrev  0x000085f7      0x2c4 NuttX/nuttx/sched/libsched.a(sig_allocpendingsigaction.o)
 .debug_abbrev  0x000088bb      0x262 NuttX/nuttx/sched/libsched.a(sig_releasependingsigaction.o)
 .debug_abbrev  0x00008b1d      0x21d NuttX/nuttx/sched/libsched.a(wd_cancel.o)
 .debug_abbrev  0x00008d3a      0x224 NuttX/nuttx/sched/libsched.a(sched_addblocked.o)
 .debug_abbrev  0x00008f5e      0x200 NuttX/nuttx/sched/libsched.a(sched_removeblocked.o)
 .debug_abbrev  0x0000915e       0x87 NuttX/nuttx/sched/libsched.a(wd_initialize.o)
 .debug_abbrev  0x000091e5      0x1d2 NuttX/nuttx/sched/libsched.a(sched_addprioritized.o)
 .debug_abbrev  0x000093b7       0x52 NuttX/nuttx/binfmt/libbinfmt.a(binfmt_initialize.o)
 .debug_abbrev  0x00009409      0x182 NuttX/apps/libapps.a(cdcacm_main.c.Users.carbs.Desktop.PX4-Autopilot.platforms.nuttx.NuttX.apps.system.cdcacm.o)
 .debug_abbrev  0x0000958b       0x91 NuttX/nuttx/arch/arm/src/libarch.a(stm32_allocateheap.o)
 .debug_abbrev  0x0000961c      0x285 NuttX/nuttx/arch/arm/src/libarch.a(stm32_gpio.o)
 .debug_abbrev  0x000098a1      0x2e7 NuttX/nuttx/arch/arm/src/libarch.a(arm_assert.o)
 .debug_abbrev  0x00009b88      0x262 NuttX/nuttx/arch/arm/src/libarch.a(arm_blocktask.o)
 .debug_abbrev  0x00009dea      0x243 NuttX/nuttx/arch/arm/src/libarch.a(arm_createstack.o)
 .debug_abbrev  0x0000a02d      0x2b2 NuttX/nuttx/arch/arm/src/libarch.a(arm_exit.o)
 .debug_abbrev  0x0000a2df       0xe3 NuttX/nuttx/arch/arm/src/libarch.a(arm_fullcontextrestore.o)
 .debug_abbrev  0x0000a3c2       0xf1 NuttX/nuttx/arch/arm/src/libarch.a(arm_initialize.o)
 .debug_abbrev  0x0000a4b3      0x1f0 NuttX/nuttx/arch/arm/src/libarch.a(arm_releasepending.o)
 .debug_abbrev  0x0000a6a3      0x1b3 NuttX/nuttx/arch/arm/src/libarch.a(arm_releasestack.o)
 .debug_abbrev  0x0000a856      0x1fa NuttX/nuttx/arch/arm/src/libarch.a(arm_stackframe.o)
 .debug_abbrev  0x0000aa50       0xe7 NuttX/nuttx/arch/arm/src/libarch.a(arm_switchcontext.o)
 .debug_abbrev  0x0000ab37      0x239 NuttX/nuttx/arch/arm/src/libarch.a(arm_unblocktask.o)
 .debug_abbrev  0x0000ad70      0x203 NuttX/nuttx/arch/arm/src/libarch.a(arm_usestack.o)
 .debug_abbrev  0x0000af73      0x301 NuttX/nuttx/arch/arm/src/libarch.a(arm_checkstack.o)
 .debug_abbrev  0x0000b274       0x43 NuttX/nuttx/arch/arm/src/libarch.a(arm_idle.o)
 .debug_abbrev  0x0000b2b7      0x218 NuttX/nuttx/arch/arm/src/libarch.a(arm_initialstate.o)
 .debug_abbrev  0x0000b4cf      0x224 NuttX/nuttx/arch/arm/src/libarch.a(arm_schedulesigaction.o)
 .debug_abbrev  0x0000b6f3      0x2d8 NuttX/nuttx/arch/arm/src/libarch.a(arm_sigdeliver.o)
 .debug_abbrev  0x0000b9cb      0x40e NuttX/nuttx/arch/arm/src/libarch.a(stm32_serial.o)
 .debug_abbrev  0x0000bdd9      0x51d NuttX/nuttx/arch/arm/src/libarch.a(stm32_otgdev.o)
 .debug_abbrev  0x0000c2f6       0x6e NuttX/nuttx/arch/arm/src/libarch.a(arm_mdelay.o)
 .debug_abbrev  0x0000c364       0xcb NuttX/nuttx/mm/libmm.a(umm_initialize.o)
 .debug_abbrev  0x0000c42f       0xb4 NuttX/nuttx/mm/libmm.a(umm_free.o)
 .debug_abbrev  0x0000c4e3       0xc7 NuttX/nuttx/mm/libmm.a(umm_malloc.o)
 .debug_abbrev  0x0000c5aa       0xc7 NuttX/nuttx/mm/libmm.a(umm_zalloc.o)
 .debug_abbrev  0x0000c671      0x1c1 NuttX/nuttx/mm/libmm.a(mm_initialize.o)
 .debug_abbrev  0x0000c832      0x1dd NuttX/nuttx/mm/libmm.a(mm_sem.o)
 .debug_abbrev  0x0000ca0f      0x120 NuttX/nuttx/mm/libmm.a(mm_addfreechunk.o)
 .debug_abbrev  0x0000cb2f       0x7c NuttX/nuttx/mm/libmm.a(mm_size2ndx.o)
 .debug_abbrev  0x0000cbab      0x2a3 NuttX/nuttx/mm/libmm.a(mm_free.o)
 .debug_abbrev  0x0000ce4e      0x2aa NuttX/nuttx/mm/libmm.a(mm_malloc.o)
 .debug_abbrev  0x0000d0f8       0xe5 NuttX/nuttx/mm/libmm.a(mm_zalloc.o)
 .debug_abbrev  0x0000d1dd       0x54 NuttX/nuttx/mm/libmm.a(umm_globals.o)
 .debug_abbrev  0x0000d231       0xf7 NuttX/nuttx/libs/libc/libc.a(lib_errno.o)
 .debug_abbrev  0x0000d328       0x97 NuttX/nuttx/libs/libc/libc.a(sq_addlast.o)
 .debug_abbrev  0x0000d3bf       0xdf NuttX/nuttx/libs/libc/libc.a(sq_rem.o)
 .debug_abbrev  0x0000d49e       0xae NuttX/nuttx/libs/libc/libc.a(sq_remfirst.o)
 .debug_abbrev  0x0000d54c       0xb0 NuttX/nuttx/libs/libc/libc.a(sq_remafter.o)
 .debug_abbrev  0x0000d5fc       0x99 NuttX/nuttx/libs/libc/libc.a(dq_addlast.o)
 .debug_abbrev  0x0000d695       0x99 NuttX/nuttx/libs/libc/libc.a(dq_addfirst.o)
 .debug_abbrev  0x0000d72e       0xbe NuttX/nuttx/libs/libc/libc.a(dq_rem.o)
 .debug_abbrev  0x0000d7ec       0xcd NuttX/nuttx/libs/libc/libc.a(task_startup.o)
 .debug_abbrev  0x0000d8b9      0x17a NuttX/nuttx/libs/libc/libc.a(sem_init.o)
 .debug_abbrev  0x0000da33      0x149 NuttX/nuttx/libs/libc/libc.a(sem_getvalue.o)
 .debug_abbrev  0x0000db7c      0x12f NuttX/nuttx/libs/libc/libc.a(sig_addset.o)
 .debug_abbrev  0x0000dcab      0x12f NuttX/nuttx/libs/libc/libc.a(sig_delset.o)
 .debug_abbrev  0x0000ddda       0xa7 NuttX/nuttx/libs/libc/libc.a(sig_emptyset.o)
 .debug_abbrev  0x0000de81      0x136 NuttX/nuttx/libs/libc/libc.a(sig_ismember.o)
 .debug_abbrev  0x0000dfb7      0x173 NuttX/nuttx/libs/libc/libc.a(lib_printf.o)
 .debug_abbrev  0x0000e12a      0x17c NuttX/nuttx/libs/libc/libc.a(lib_libflushall.o)
 .debug_abbrev  0x0000e2a6      0x18a NuttX/nuttx/libs/libc/libc.a(lib_libfflush.o)
 .debug_abbrev  0x0000e430      0x1ed NuttX/nuttx/libs/libc/libc.a(lib_vfprintf.o)
 .debug_abbrev  0x0000e61d      0x29b NuttX/nuttx/libs/libc/libc.a(lib_libstream.o)
 .debug_abbrev  0x0000e8b8      0x262 NuttX/nuttx/libs/libc/libc.a(lib_libfilesem.o)
 .debug_abbrev  0x0000eb1a      0x237 NuttX/nuttx/libs/libc/libc.a(lib_stdoutstream.o)
 .debug_abbrev  0x0000ed51       0x94 NuttX/nuttx/libs/libc/libc.a(lib_strcpy.o)
 .debug_abbrev  0x0000ede5       0xa6 NuttX/nuttx/libs/libc/libc.a(lib_strlcpy.o)
 .debug_abbrev  0x0000ee8b       0x8e NuttX/nuttx/libs/libc/libc.a(lib_strlen.o)
 .debug_abbrev  0x0000ef19       0xca NuttX/nuttx/libs/libc/libc.a(lib_strncpy.o)
 .debug_abbrev  0x0000efe3       0xd7 NuttX/nuttx/libs/libc/libc.a(lib_cfspeed.o)
 .debug_abbrev  0x0000f0ba      0x13a NuttX/nuttx/libs/libc/libc.a(tls_getinfo.o)
 .debug_abbrev  0x0000f1f4       0xa6 NuttX/nuttx/libs/libc/libc.a(lib_cxx_initialize.o)
 .debug_abbrev  0x0000f29a      0x2a7 NuttX/nuttx/libs/libc/libc.a(lib_libvsprintf.o)
 .debug_abbrev  0x0000f541       0xc1 NuttX/nuttx/libs/libc/libc.a(lib_ultoa_invert.o)
 .debug_abbrev  0x0000f602      0x15f NuttX/nuttx/libs/libc/libc.a(lib_dtoa_engine.o)
 .debug_abbrev  0x0000f761       0x6c NuttX/nuttx/libs/libc/libc.a(lib_dtoa_data.o)
 .debug_abbrev  0x0000f7cd      0x14d NuttX/nuttx/libs/libc/libc.a(lib_fputc.o)
 .debug_abbrev  0x0000f91a       0xee NuttX/nuttx/libs/libc/libc.a(lib_libnoflush.o)
 .debug_abbrev  0x0000fa08       0xa2 NuttX/nuttx/libs/libc/libc.a(lib_strnlen.o)
 .debug_abbrev  0x0000faaa      0x1fe NuttX/nuttx/libs/libc/libc.a(lib_libfwrite.o)
 .debug_abbrev  0x0000fca8      0x186 NuttX/nuttx/libs/libc/libc.a(lib_rdflush.o)
 .debug_abbrev  0x0000fe2e      0x107 NuttX/nuttx/libs/libc/libc.a(lib_fseek.o)
 .debug_abbrev  0x0000ff35      0x14d NuttX/nuttx/libs/libc/libc.a(lib_fseeko.o)
 .debug_abbrev  0x00010082      0x12a NuttX/nuttx/libs/libc/libc.a(lib_wrflush.o)
 .debug_abbrev  0x000101ac      0x4e5 platforms/nuttx/src/bootloader/common/libbootloader.a(bl.c.obj)
 .debug_abbrev  0x00010691      0x1a4 platforms/nuttx/src/bootloader/common/lib/libbootloader_lib.a(cdcacm.c.obj)
 .debug_abbrev  0x00010835      0x1f2 platforms/nuttx/src/bootloader/common/lib/libbootloader_lib.a(uart.c.obj)
 .debug_abbrev  0x00010a27      0x1fa NuttX/nuttx/boards/libboards.a(boardctl.o)
 .debug_abbrev  0x00010c21       0x80 NuttX/nuttx/drivers/libdrivers.a(drivers_initialize.o)
 .debug_abbrev  0x00010ca1      0x25b NuttX/nuttx/drivers/libdrivers.a(dev_null.o)
 .debug_abbrev  0x00010efc      0x545 NuttX/nuttx/drivers/libdrivers.a(serial.o)
 .debug_abbrev  0x00011441      0x220 NuttX/nuttx/drivers/libdrivers.a(serial_io.o)
 .debug_abbrev  0x00011661      0x103 NuttX/nuttx/drivers/libdrivers.a(syslog_flush.o)
 .debug_abbrev  0x00011764       0x7b NuttX/nuttx/drivers/libdrivers.a(syslog_initialize.o)
 .debug_abbrev  0x000117df      0x52c NuttX/nuttx/drivers/libdrivers.a(cdcacm.o)
 .debug_abbrev  0x00011d0b      0x2a0 NuttX/nuttx/drivers/libdrivers.a(cdcacm_desc.o)
 .debug_abbrev  0x00011fab      0x1ea NuttX/nuttx/drivers/libdrivers.a(syslog_channel.o)
 .debug_abbrev  0x00012195       0x62 NuttX/nuttx/fs/libfs.a(fs_initialize.o)
 .debug_abbrev  0x000121f7      0x3cf NuttX/nuttx/fs/libfs.a(fs_files.o)
 .debug_abbrev  0x000125c6      0x238 NuttX/nuttx/fs/libfs.a(fs_inode.o)
 .debug_abbrev  0x000127fe      0x329 NuttX/nuttx/fs/libfs.a(fs_inodereserve.o)
 .debug_abbrev  0x00012b27      0x2a2 NuttX/nuttx/fs/libfs.a(fs_inodesearch.o)
 .debug_abbrev  0x00012dc9      0x1ae NuttX/nuttx/fs/libfs.a(fs_close.o)
 .debug_abbrev  0x00012f77      0x21e NuttX/nuttx/fs/libfs.a(fs_lseek.o)
 .debug_abbrev  0x00013195      0x380 NuttX/nuttx/fs/libfs.a(fs_open.o)
 .debug_abbrev  0x00013515      0x22f NuttX/nuttx/fs/libfs.a(fs_read.o)
 .debug_abbrev  0x00013744      0x21e NuttX/nuttx/fs/libfs.a(fs_write.o)
 .debug_abbrev  0x00013962      0x427 NuttX/nuttx/fs/libfs.a(fs_dir.o)
 .debug_abbrev  0x00013d89      0x31b NuttX/nuttx/fs/libfs.a(fs_fdopen.o)
 .debug_abbrev  0x000140a4      0x1d5 NuttX/nuttx/fs/libfs.a(fs_registerdriver.o)
 .debug_abbrev  0x00014279       0xe0 NuttX/nuttx/fs/libfs.a(fs_unregisterdriver.o)
 .debug_abbrev  0x00014359      0x198 NuttX/nuttx/fs/libfs.a(fs_inodeaddref.o)
 .debug_abbrev  0x000144f1      0x1bd NuttX/nuttx/fs/libfs.a(fs_inodefind.o)
 .debug_abbrev  0x000146ae      0x1ce NuttX/nuttx/fs/libfs.a(fs_inoderelease.o)
 .debug_abbrev  0x0001487c      0x20a NuttX/nuttx/fs/libfs.a(fs_inoderemove.o)
 .debug_abbrev  0x00014a86      0x15f NuttX/nuttx/fs/libfs.a(fs_inodefree.o)
 .debug_abbrev  0x00014be5      0x185 NuttX/nuttx/sched/libsched.a(clock_initialize.o)
 .debug_abbrev  0x00014d6a      0x1ac NuttX/nuttx/sched/libsched.a(sched_getfiles.o)
 .debug_abbrev  0x00014f16      0x225 NuttX/nuttx/sched/libsched.a(sched_addreadytorun.o)
 .debug_abbrev  0x0001513b      0x20e NuttX/nuttx/sched/libsched.a(sched_removereadytorun.o)
 .debug_abbrev  0x00015349      0x1df NuttX/nuttx/sched/libsched.a(sched_mergepending.o)
 .debug_abbrev  0x00015528      0x1ac NuttX/nuttx/sched/libsched.a(sched_getstreams.o)
 .debug_abbrev  0x000156d4      0x1c7 NuttX/nuttx/sched/libsched.a(sched_idletask.o)
 .debug_abbrev  0x0001589b      0x195 NuttX/nuttx/sched/libsched.a(sched_self.o)
 .debug_abbrev  0x00015a30      0x223 NuttX/nuttx/sched/libsched.a(sched_get_stackinfo.o)
 .debug_abbrev  0x00015c53      0x35f NuttX/nuttx/sched/libsched.a(sem_wait.o)
 .debug_abbrev  0x00015fb2      0x35c NuttX/nuttx/sched/libsched.a(sem_post.o)
 .debug_abbrev  0x0001630e      0x1ff NuttX/nuttx/sched/libsched.a(sem_reset.o)
 .debug_abbrev  0x0001650d      0x19d NuttX/nuttx/sched/libsched.a(sig_kill.o)
 .debug_abbrev  0x000166aa       0xf3 NuttX/nuttx/sched/libsched.a(sig_usleep.o)
 .debug_abbrev  0x0001679d      0x25d NuttX/nuttx/sched/libsched.a(task_exit.o)
 .debug_abbrev  0x000169fa      0x1c7 NuttX/nuttx/sched/libsched.a(task_getpid.o)
 .debug_abbrev  0x00016bc1      0x34c NuttX/nuttx/sched/libsched.a(task_terminate.o)
 .debug_abbrev  0x00016f0d      0x1c7 NuttX/nuttx/sched/libsched.a(task_gettid.o)
 .debug_abbrev  0x000170d4      0x299 NuttX/nuttx/sched/libsched.a(wd_start.o)
 .debug_abbrev  0x0001736d      0x356 NuttX/nuttx/sched/libsched.a(sig_nanosleep.o)
 .debug_abbrev  0x000176c3      0x408 NuttX/nuttx/sched/libsched.a(sig_timedwait.o)
 .debug_abbrev  0x00017acb      0x135 NuttX/nuttx/arch/arm/src/libarch.a(stm32_timerisr.o)
 .debug_abbrev  0x00017c00       0x9f NuttX/nuttx/arch/arm/src/libarch.a(arm_nputs.o)
 .debug_abbrev  0x00017c9f       0xc9 NuttX/nuttx/mm/libmm.a(umm_realloc.o)
 .debug_abbrev  0x00017d68      0x1c3 NuttX/nuttx/mm/libmm.a(mm_realloc.o)
 .debug_abbrev  0x00017f2b      0x11e NuttX/nuttx/mm/libmm.a(mm_shrinkchunk.o)
 .debug_abbrev  0x00018049      0x115 NuttX/nuttx/libs/libc/libc.a(lib_umask.o)
 .debug_abbrev  0x0001815e       0x97 NuttX/nuttx/libs/libc/libc.a(sq_addfirst.o)
 .debug_abbrev  0x000181f5       0xbf NuttX/nuttx/libs/libc/libc.a(sq_addafter.o)
 .debug_abbrev  0x000182b4       0xdc NuttX/nuttx/libs/libc/libc.a(clock_ticks2time.o)
 .debug_abbrev  0x00018390       0xef NuttX/nuttx/libs/libc/libc.a(clock_time2ticks.o)
 .debug_abbrev  0x0001847f      0x149 NuttX/nuttx/libs/libc/libc.a(sem_setprotocol.o)
 .debug_abbrev  0x000185c8      0x108 NuttX/nuttx/libs/libc/libc.a(lib_asprintf.o)
 .debug_abbrev  0x000186d0      0x1d5 NuttX/nuttx/libs/libc/libc.a(lib_snprintf.o)
 .debug_abbrev  0x000188a5      0x1da NuttX/nuttx/libs/libc/libc.a(lib_vasprintf.o)
 .debug_abbrev  0x00018a7f       0x9d NuttX/nuttx/libs/libc/libc.a(lib_atol.o)
 .debug_abbrev  0x00018b1c       0xef NuttX/nuttx/libs/libc/libc.a(lib_strtol.o)
 .debug_abbrev  0x00018c0b       0xf8 NuttX/nuttx/libs/libc/libc.a(lib_strtoul.o)
 .debug_abbrev  0x00018d03       0xb2 NuttX/nuttx/libs/libc/libc.a(lib_checkbase.o)
 .debug_abbrev  0x00018db5      0x1a3 NuttX/nuttx/libs/libc/libc.a(lib_memoutstream.o)
 .debug_abbrev  0x00018f58      0x106 NuttX/nuttx/libs/libc/libc.a(lib_nulloutstream.o)
 .debug_abbrev  0x0001905e       0x9f NuttX/nuttx/libs/libc/libc.a(lib_isbasedigit.o)
 .debug_abbrev  0x000190fd       0xa5 NuttX/nuttx/libs/libc/libc.a(lib_skipspace.o)
 .debug_abbrev  0x000191a2       0xd8 NuttX/nuttx/libs/libc/libc.a(lib_strdup.o)
 .debug_abbrev  0x0001927a       0xc2 NuttX/nuttx/libs/libc/libc.a(lib_strtok.o)
 .debug_abbrev  0x0001933c       0xd0 NuttX/nuttx/libs/libc/libc.a(lib_strtokr.o)
 .debug_abbrev  0x0001940c       0x7d NuttX/nuttx/libs/libc/libc.a(lib_strchr.o)
 .debug_abbrev  0x00019489       0xf4 NuttX/nuttx/libs/libc/libc.a(lib_tcgetattr.o)
 .debug_abbrev  0x0001957d      0x120 NuttX/nuttx/libs/libc/libc.a(lib_tcsetattr.o)
 .debug_abbrev  0x0001969d       0xe4 NuttX/nuttx/libs/libc/libc.a(task_getinfo.o)
 .debug_abbrev  0x00019781       0x5c NuttX/nuttx/libs/libc/libc.a(lib_isspace.o)
 .debug_abbrev  0x000197dd       0x93 NuttX/nuttx/libs/libc/libc.a(lib_tcflush.o)
 .debug_abbrev  0x00019870       0x91 NuttX/nuttx/libs/libc/libc.a(lib_tcdrain.o)
 .debug_abbrev  0x00019901      0x336 NuttX/nuttx/fs/libfs.a(fs_ioctl.o)
 .debug_abbrev  0x00019c37      0x1b1 NuttX/nuttx/fs/libfs.a(fs_inodegetpath.o)
 .debug_abbrev  0x00019de8       0x7e NuttX/nuttx/sched/libsched.a(sched_processtimer.o)
 .debug_abbrev  0x00019e66       0xd1 NuttX/nuttx/libs/libc/libc.a(lib_strcat.o)
 .debug_abbrev  0x00019f37      0x3dd platforms/nuttx/src/bootloader/stm/stm32h7/arch_bootloader/libarch_bootloader.a(main.c.obj)
 .debug_abbrev  0x0001a314       0xd3 platforms/nuttx/src/bootloader/stm/stm32h7/arch_bootloader/libarch_bootloader.a(systick.c.obj)
 .debug_abbrev  0x0001a3e7      0x27a platforms/nuttx/src/px4/stm/stm32h7/board_reset/libarch_board_reset.a(board_reset.cpp.obj)
 .debug_abbrev  0x0001a661      0x3ec NuttX/nuttx/arch/arm/src/libarch.a(stm32_flash.o)
 .debug_abbrev  0x0001aa4d       0x69 NuttX/nuttx/arch/arm/src/libarch.a(arm_systemreset.o)
 .debug_abbrev  0x0001aab6      0x274 platforms/nuttx/src/bootloader/common/lib/libbootloader_lib.a(flash_cache.c.obj)

.debug_info     0x00000000    0x8247f
 *(.debug_info)
 .debug_info    0x00000000       0xcc NuttX/nuttx/arch/arm/src/libarch.a(arm_vectors.o)
 .debug_info    0x000000cc       0x31 NuttX/nuttx/arch/arm/src/libarch.a(arm_exception.o)
 .debug_info    0x000000fd      0x212 NuttX/nuttx/arch/arm/src/libarch.a(stm32_start.o)
 .debug_info    0x0000030f      0x3bc NuttX/nuttx/arch/arm/src/libarch.a(stm32_rcc.o)
 .debug_info    0x000006cb       0xb7 NuttX/nuttx/arch/arm/src/libarch.a(stm32_lowputc.o)
 .debug_info    0x00000782      0xb7a NuttX/nuttx/arch/arm/src/libarch.a(stm32_pwr.o)
 .debug_info    0x000012fc      0x274 NuttX/nuttx/arch/arm/src/libarch.a(arm_modifyreg32.o)
 .debug_info    0x00001570       0xe0 NuttX/nuttx/arch/arm/src/libarch.a(arm_udelay.o)
 .debug_info    0x00001650      0x172 NuttX/nuttx/arch/arm/src/libarch.a(arm_cache.o)
 .debug_info    0x000017c2      0x154 NuttX/nuttx/arch/arm/src/libarch.a(arm_doirq.o)
 .debug_info    0x00001916      0x143 NuttX/nuttx/arch/arm/src/libarch.a(arm_fpuconfig.o)
 .debug_info    0x00001a59      0x475 NuttX/nuttx/arch/arm/src/libarch.a(stm32_irq.o)
 .debug_info    0x00001ece      0x24f NuttX/nuttx/arch/arm/src/libarch.a(arm_hardfault.o)
 .debug_info    0x0000211d      0x1c5 NuttX/nuttx/arch/arm/src/libarch.a(arm_svcall.o)
 .debug_info    0x000022e2       0x25 NuttX/nuttx/libs/libc/libc.a(arch_memcpy.o)
 .debug_info    0x00002307      0x125 NuttX/nuttx/libs/libc/libc.a(lib_assert.o)
 .debug_info    0x0000242c       0xaf NuttX/nuttx/libs/libc/libc.a(lib_abort.o)
 .debug_info    0x000024db      0x120 NuttX/nuttx/libs/libc/libc.a(lib_exit.o)
 .debug_info    0x000025fb      0x18a NuttX/nuttx/libs/libc/libc.a(lib_memset.o)
 .debug_info    0x00002785      0x189 boards/hkust/nxt-dual/src/libdrivers_board.a(bootloader_main.c.obj)
 .debug_info    0x0000290e      0x4d5 boards/hkust/nxt-dual/src/libdrivers_board.a(usb.c.obj)
 .debug_info    0x00002de3     0x1727 NuttX/nuttx/sched/libsched.a(nx_start.o)
 .debug_info    0x0000450a      0x28f NuttX/nuttx/sched/libsched.a(nx_bringup.o)
 .debug_info    0x00004799      0x363 NuttX/nuttx/sched/libsched.a(irq_attach.o)
 .debug_info    0x00004afc     0x1102 NuttX/nuttx/sched/libsched.a(irq_dispatch.o)
 .debug_info    0x00005bfe      0x237 NuttX/nuttx/sched/libsched.a(irq_unexpectedisr.o)
 .debug_info    0x00005e35     0x1085 NuttX/nuttx/sched/libsched.a(sched_lock.o)
 .debug_info    0x00006eba     0x121d NuttX/nuttx/sched/libsched.a(sched_unlock.o)
 .debug_info    0x000080d7     0x14b9 NuttX/nuttx/sched/libsched.a(task_create.o)
 .debug_info    0x00009590     0x149a NuttX/nuttx/sched/libsched.a(task_init.o)
 .debug_info    0x0000aa2a     0x1956 NuttX/nuttx/sched/libsched.a(task_setup.o)
 .debug_info    0x0000c380     0x1127 NuttX/nuttx/sched/libsched.a(task_activate.o)
 .debug_info    0x0000d4a7     0x11b2 NuttX/nuttx/sched/libsched.a(task_start.o)
 .debug_info    0x0000e659     0x1073 NuttX/nuttx/sched/libsched.a(exit.o)
 .debug_info    0x0000f6cc     0x111f NuttX/nuttx/sched/libsched.a(tls_initinfo.o)
 .debug_info    0x000107eb     0x11f5 NuttX/nuttx/sched/libsched.a(group_create.o)
 .debug_info    0x000119e0     0x11e8 NuttX/nuttx/sched/libsched.a(group_leave.o)
 .debug_info    0x00012bc8      0xfeb NuttX/nuttx/sched/libsched.a(group_setupidlefiles.o)
 .debug_info    0x00013bb3      0xfeb NuttX/nuttx/sched/libsched.a(group_setuptaskfiles.o)
 .debug_info    0x00014b9e      0x158 NuttX/nuttx/sched/libsched.a(irq_initialize.o)
 .debug_info    0x00014cf6     0x1222 NuttX/nuttx/sched/libsched.a(sched_releasetcb.o)
 .debug_info    0x00015f18     0x12e6 NuttX/nuttx/sched/libsched.a(sig_procmask.o)
 .debug_info    0x000171fe     0x11f7 NuttX/nuttx/sched/libsched.a(sig_unmaskpendingsignal.o)
 .debug_info    0x000183f5     0x11ce NuttX/nuttx/sched/libsched.a(sig_removependingsignal.o)
 .debug_info    0x000195c3      0x446 NuttX/nuttx/sched/libsched.a(sig_releasependingsignal.o)
 .debug_info    0x00019a09      0x145 NuttX/nuttx/sched/libsched.a(sig_lowest.o)
 .debug_info    0x00019b4e     0x1260 NuttX/nuttx/sched/libsched.a(sig_cleanup.o)
 .debug_info    0x0001adae     0x1d45 NuttX/nuttx/sched/libsched.a(sig_dispatch.o)
 .debug_info    0x0001caf3     0x13e5 NuttX/nuttx/sched/libsched.a(sig_deliver.o)
 .debug_info    0x0001ded8     0x17e4 NuttX/nuttx/sched/libsched.a(sig_default.o)
 .debug_info    0x0001f6bc     0x109c NuttX/nuttx/sched/libsched.a(task_exithook.o)
 .debug_info    0x00020758     0x1037 NuttX/nuttx/sched/libsched.a(task_recover.o)
 .debug_info    0x0002178f      0xdb9 NuttX/nuttx/sched/libsched.a(task_initinfo.o)
 .debug_info    0x00022548      0xd7b NuttX/nuttx/sched/libsched.a(task_uninitinfo.o)
 .debug_info    0x000232c3      0xfb4 NuttX/nuttx/sched/libsched.a(wd_recover.o)
 .debug_info    0x00024277     0x1059 NuttX/nuttx/sched/libsched.a(group_setupstreams.o)
 .debug_info    0x000252d0     0x1141 NuttX/nuttx/sched/libsched.a(sched_gettcb.o)
 .debug_info    0x00026411     0x11cb NuttX/nuttx/sched/libsched.a(sched_suspend.o)
 .debug_info    0x000275dc     0x116f NuttX/nuttx/sched/libsched.a(sched_continue.o)
 .debug_info    0x0002874b      0x188 NuttX/nuttx/sched/libsched.a(sem_destroy.o)
 .debug_info    0x000288d3     0x1157 NuttX/nuttx/sched/libsched.a(sem_recover.o)
 .debug_info    0x00029a2a     0x119d NuttX/nuttx/sched/libsched.a(sem_waitirq.o)
 .debug_info    0x0002abc7      0x65f NuttX/nuttx/sched/libsched.a(sig_initialize.o)
 .debug_info    0x0002b226     0x18f3 NuttX/nuttx/sched/libsched.a(sig_action.o)
 .debug_info    0x0002cb19     0x12a2 NuttX/nuttx/sched/libsched.a(sig_pending.o)
 .debug_info    0x0002ddbb      0xdf6 NuttX/nuttx/sched/libsched.a(sig_findaction.o)
 .debug_info    0x0002ebb1      0x4cb NuttX/nuttx/sched/libsched.a(sig_allocpendingsigaction.o)
 .debug_info    0x0002f07c      0x4a0 NuttX/nuttx/sched/libsched.a(sig_releasependingsigaction.o)
 .debug_info    0x0002f51c      0x3ff NuttX/nuttx/sched/libsched.a(wd_cancel.o)
 .debug_info    0x0002f91b     0x111a NuttX/nuttx/sched/libsched.a(sched_addblocked.o)
 .debug_info    0x00030a35     0x10e1 NuttX/nuttx/sched/libsched.a(sched_removeblocked.o)
 .debug_info    0x00031b16       0xe2 NuttX/nuttx/sched/libsched.a(wd_initialize.o)
 .debug_info    0x00031bf8     0x105d NuttX/nuttx/sched/libsched.a(sched_addprioritized.o)
 .debug_info    0x00032c55       0xa1 NuttX/nuttx/binfmt/libbinfmt.a(binfmt_initialize.o)
 .debug_info    0x00032cf6      0x320 NuttX/apps/libapps.a(cdcacm_main.c.Users.carbs.Desktop.PX4-Autopilot.platforms.nuttx.NuttX.apps.system.cdcacm.o)
 .debug_info    0x00033016       0xf5 NuttX/nuttx/arch/arm/src/libarch.a(stm32_allocateheap.o)
 .debug_info    0x0003310b      0x4fc NuttX/nuttx/arch/arm/src/libarch.a(stm32_gpio.o)
 .debug_info    0x00033607     0x12b7 NuttX/nuttx/arch/arm/src/libarch.a(arm_assert.o)
 .debug_info    0x000348be     0x117c NuttX/nuttx/arch/arm/src/libarch.a(arm_blocktask.o)
 .debug_info    0x00035a3a     0x1159 NuttX/nuttx/arch/arm/src/libarch.a(arm_createstack.o)
 .debug_info    0x00036b93     0x1128 NuttX/nuttx/arch/arm/src/libarch.a(arm_exit.o)
 .debug_info    0x00037cbb      0x148 NuttX/nuttx/arch/arm/src/libarch.a(arm_fullcontextrestore.o)
 .debug_info    0x00037e03      0x166 NuttX/nuttx/arch/arm/src/libarch.a(arm_initialize.o)
 .debug_info    0x00037f69     0x1085 NuttX/nuttx/arch/arm/src/libarch.a(arm_releasepending.o)
 .debug_info    0x00038fee      0xfb3 NuttX/nuttx/arch/arm/src/libarch.a(arm_releasestack.o)
 .debug_info    0x00039fa1      0xff6 NuttX/nuttx/arch/arm/src/libarch.a(arm_stackframe.o)
 .debug_info    0x0003af97      0x184 NuttX/nuttx/arch/arm/src/libarch.a(arm_switchcontext.o)
 .debug_info    0x0003b11b     0x1118 NuttX/nuttx/arch/arm/src/libarch.a(arm_unblocktask.o)
 .debug_info    0x0003c233     0x110f NuttX/nuttx/arch/arm/src/libarch.a(arm_usestack.o)
 .debug_info    0x0003d342     0x138f NuttX/nuttx/arch/arm/src/libarch.a(arm_checkstack.o)
 .debug_info    0x0003e6d1       0x94 NuttX/nuttx/arch/arm/src/libarch.a(arm_idle.o)
 .debug_info    0x0003e765     0x1015 NuttX/nuttx/arch/arm/src/libarch.a(arm_initialstate.o)
 .debug_info    0x0003f77a     0x10da NuttX/nuttx/arch/arm/src/libarch.a(arm_schedulesigaction.o)
 .debug_info    0x00040854     0x1198 NuttX/nuttx/arch/arm/src/libarch.a(arm_sigdeliver.o)
 .debug_info    0x000419ec     0x26be NuttX/nuttx/arch/arm/src/libarch.a(stm32_serial.o)
 .debug_info    0x000440aa     0x408b NuttX/nuttx/arch/arm/src/libarch.a(stm32_otgdev.o)
 .debug_info    0x00048135       0xbf NuttX/nuttx/arch/arm/src/libarch.a(arm_mdelay.o)
 .debug_info    0x000481f4      0x142 NuttX/nuttx/mm/libmm.a(umm_initialize.o)
 .debug_info    0x00048336       0xf0 NuttX/nuttx/mm/libmm.a(umm_free.o)
 .debug_info    0x00048426      0x110 NuttX/nuttx/mm/libmm.a(umm_malloc.o)
 .debug_info    0x00048536      0x110 NuttX/nuttx/mm/libmm.a(umm_zalloc.o)
 .debug_info    0x00048646      0x4b1 NuttX/nuttx/mm/libmm.a(mm_initialize.o)
 .debug_info    0x00048af7      0x4b2 NuttX/nuttx/mm/libmm.a(mm_sem.o)
 .debug_info    0x00048fa9      0x2b6 NuttX/nuttx/mm/libmm.a(mm_addfreechunk.o)
 .debug_info    0x0004925f       0xd9 NuttX/nuttx/mm/libmm.a(mm_size2ndx.o)
 .debug_info    0x00049338      0x532 NuttX/nuttx/mm/libmm.a(mm_free.o)
 .debug_info    0x0004986a      0x5c8 NuttX/nuttx/mm/libmm.a(mm_malloc.o)
 .debug_info    0x00049e32      0x175 NuttX/nuttx/mm/libmm.a(mm_zalloc.o)
 .debug_info    0x00049fa7       0x9c NuttX/nuttx/mm/libmm.a(umm_globals.o)
 .debug_info    0x0004a043      0x2a4 NuttX/nuttx/libs/libc/libc.a(lib_errno.o)
 .debug_info    0x0004a2e7      0x104 NuttX/nuttx/libs/libc/libc.a(sq_addlast.o)
 .debug_info    0x0004a3eb      0x14e NuttX/nuttx/libs/libc/libc.a(sq_rem.o)
 .debug_info    0x0004a539      0x118 NuttX/nuttx/libs/libc/libc.a(sq_remfirst.o)
 .debug_info    0x0004a651      0x128 NuttX/nuttx/libs/libc/libc.a(sq_remafter.o)
 .debug_info    0x0004a779      0x10c NuttX/nuttx/libs/libc/libc.a(dq_addlast.o)
 .debug_info    0x0004a885      0x10c NuttX/nuttx/libs/libc/libc.a(dq_addfirst.o)
 .debug_info    0x0004a991      0x12e NuttX/nuttx/libs/libc/libc.a(dq_rem.o)
 .debug_info    0x0004aabf      0x141 NuttX/nuttx/libs/libc/libc.a(task_startup.o)
 .debug_info    0x0004ac00      0x1fc NuttX/nuttx/libs/libc/libc.a(sem_init.o)
 .debug_info    0x0004adfc      0x1a3 NuttX/nuttx/libs/libc/libc.a(sem_getvalue.o)
 .debug_info    0x0004af9f      0x184 NuttX/nuttx/libs/libc/libc.a(sig_addset.o)
 .debug_info    0x0004b123      0x184 NuttX/nuttx/libs/libc/libc.a(sig_delset.o)
 .debug_info    0x0004b2a7       0xea NuttX/nuttx/libs/libc/libc.a(sig_emptyset.o)
 .debug_info    0x0004b391      0x189 NuttX/nuttx/libs/libc/libc.a(sig_ismember.o)
 .debug_info    0x0004b51a      0x341 NuttX/nuttx/libs/libc/libc.a(lib_printf.o)
 .debug_info    0x0004b85b      0x3eb NuttX/nuttx/libs/libc/libc.a(lib_libflushall.o)
 .debug_info    0x0004bc46      0x3a6 NuttX/nuttx/libs/libc/libc.a(lib_libfflush.o)
 .debug_info    0x0004bfec      0x486 NuttX/nuttx/libs/libc/libc.a(lib_vfprintf.o)
 .debug_info    0x0004c472      0xf6c NuttX/nuttx/libs/libc/libc.a(lib_libstream.o)
 .debug_info    0x0004d3de      0x5ad NuttX/nuttx/libs/libc/libc.a(lib_libfilesem.o)
 .debug_info    0x0004d98b      0x4df NuttX/nuttx/libs/libc/libc.a(lib_stdoutstream.o)
 .debug_info    0x0004de6a       0xe1 NuttX/nuttx/libs/libc/libc.a(lib_strcpy.o)
 .debug_info    0x0004df4b      0x11b NuttX/nuttx/libs/libc/libc.a(lib_strlcpy.o)
 .debug_info    0x0004e066       0xde NuttX/nuttx/libs/libc/libc.a(lib_strlen.o)
 .debug_info    0x0004e144      0x131 NuttX/nuttx/libs/libc/libc.a(lib_strncpy.o)
 .debug_info    0x0004e275      0x200 NuttX/nuttx/libs/libc/libc.a(lib_cfspeed.o)
 .debug_info    0x0004e475      0x31b NuttX/nuttx/libs/libc/libc.a(tls_getinfo.o)
 .debug_info    0x0004e790      0x138 NuttX/nuttx/libs/libc/libc.a(lib_cxx_initialize.o)
 .debug_info    0x0004e8c8      0xa01 NuttX/nuttx/libs/libc/libc.a(lib_libvsprintf.o)
 .debug_info    0x0004f2c9       0xd7 NuttX/nuttx/libs/libc/libc.a(lib_ultoa_invert.o)
 .debug_info    0x0004f3a0      0x291 NuttX/nuttx/libs/libc/libc.a(lib_dtoa_engine.o)
 .debug_info    0x0004f631      0x100 NuttX/nuttx/libs/libc/libc.a(lib_dtoa_data.o)
 .debug_info    0x0004f731      0x328 NuttX/nuttx/libs/libc/libc.a(lib_fputc.o)
 .debug_info    0x0004fa59      0x175 NuttX/nuttx/libs/libc/libc.a(lib_libnoflush.o)
 .debug_info    0x0004fbce       0xf2 NuttX/nuttx/libs/libc/libc.a(lib_strnlen.o)
 .debug_info    0x0004fcc0      0x4d0 NuttX/nuttx/libs/libc/libc.a(lib_libfwrite.o)
 .debug_info    0x00050190      0x35b NuttX/nuttx/libs/libc/libc.a(lib_rdflush.o)
 .debug_info    0x000504eb      0x2e9 NuttX/nuttx/libs/libc/libc.a(lib_fseek.o)
 .debug_info    0x000507d4      0x33a NuttX/nuttx/libs/libc/libc.a(lib_fseeko.o)
 .debug_info    0x00050b0e      0x2bc NuttX/nuttx/libs/libc/libc.a(lib_wrflush.o)
 .debug_info    0x00050dca     0x1485 platforms/nuttx/src/bootloader/common/libbootloader.a(bl.c.obj)
 .debug_info    0x0005224f      0x37e platforms/nuttx/src/bootloader/common/lib/libbootloader_lib.a(cdcacm.c.obj)
 .debug_info    0x000525cd      0x535 platforms/nuttx/src/bootloader/common/lib/libbootloader_lib.a(uart.c.obj)
 .debug_info    0x00052b02      0x2df NuttX/nuttx/boards/libboards.a(boardctl.o)
 .debug_info    0x00052de1       0xc2 NuttX/nuttx/drivers/libdrivers.a(drivers_initialize.o)
 .debug_info    0x00052ea3      0xb45 NuttX/nuttx/drivers/libdrivers.a(dev_null.o)
 .debug_info    0x000539e8     0x2b48 NuttX/nuttx/drivers/libdrivers.a(serial.o)
 .debug_info    0x00056530      0xe5b NuttX/nuttx/drivers/libdrivers.a(serial_io.o)
 .debug_info    0x0005738b      0x217 NuttX/nuttx/drivers/libdrivers.a(syslog_flush.o)
 .debug_info    0x000575a2       0xc1 NuttX/nuttx/drivers/libdrivers.a(syslog_initialize.o)
 .debug_info    0x00057663     0x3d50 NuttX/nuttx/drivers/libdrivers.a(cdcacm.o)
 .debug_info    0x0005b3b3      0x874 NuttX/nuttx/drivers/libdrivers.a(cdcacm_desc.o)
 .debug_info    0x0005bc27      0x391 NuttX/nuttx/drivers/libdrivers.a(syslog_channel.o)
 .debug_info    0x0005bfb8       0xa7 NuttX/nuttx/fs/libfs.a(fs_initialize.o)
 .debug_info    0x0005c05f     0x1236 NuttX/nuttx/fs/libfs.a(fs_files.o)
 .debug_info    0x0005d295      0x3e7 NuttX/nuttx/fs/libfs.a(fs_inode.o)
 .debug_info    0x0005d67c      0xd9a NuttX/nuttx/fs/libfs.a(fs_inodereserve.o)
 .debug_info    0x0005e416      0xbc9 NuttX/nuttx/fs/libfs.a(fs_inodesearch.o)
 .debug_info    0x0005efdf      0x97b NuttX/nuttx/fs/libfs.a(fs_close.o)
 .debug_info    0x0005f95a      0xb0d NuttX/nuttx/fs/libfs.a(fs_lseek.o)
 .debug_info    0x00060467      0xfcd NuttX/nuttx/fs/libfs.a(fs_open.o)
 .debug_info    0x00061434      0xb11 NuttX/nuttx/fs/libfs.a(fs_read.o)
 .debug_info    0x00061f45      0xb04 NuttX/nuttx/fs/libfs.a(fs_write.o)
 .debug_info    0x00062a49     0x1202 NuttX/nuttx/fs/libfs.a(fs_dir.o)
 .debug_info    0x00063c4b     0x122f NuttX/nuttx/fs/libfs.a(fs_fdopen.o)
 .debug_info    0x00064e7a      0x9df NuttX/nuttx/fs/libfs.a(fs_registerdriver.o)
 .debug_info    0x00065859      0x11e NuttX/nuttx/fs/libfs.a(fs_unregisterdriver.o)
 .debug_info    0x00065977      0x956 NuttX/nuttx/fs/libfs.a(fs_inodeaddref.o)
 .debug_info    0x000662cd      0x9f4 NuttX/nuttx/fs/libfs.a(fs_inodefind.o)
 .debug_info    0x00066cc1      0x989 NuttX/nuttx/fs/libfs.a(fs_inoderelease.o)
 .debug_info    0x0006764a      0xa79 NuttX/nuttx/fs/libfs.a(fs_inoderemove.o)
 .debug_info    0x000680c3      0x938 NuttX/nuttx/fs/libfs.a(fs_inodefree.o)
 .debug_info    0x000689fb      0x1e6 NuttX/nuttx/sched/libsched.a(clock_initialize.o)
 .debug_info    0x00068be1     0x1026 NuttX/nuttx/sched/libsched.a(sched_getfiles.o)
 .debug_info    0x00069c07     0x10c8 NuttX/nuttx/sched/libsched.a(sched_addreadytorun.o)
 .debug_info    0x0006accf     0x10b3 NuttX/nuttx/sched/libsched.a(sched_removereadytorun.o)
 .debug_info    0x0006bd82     0x10a3 NuttX/nuttx/sched/libsched.a(sched_mergepending.o)
 .debug_info    0x0006ce25     0x1026 NuttX/nuttx/sched/libsched.a(sched_getstreams.o)
 .debug_info    0x0006de4b     0x1048 NuttX/nuttx/sched/libsched.a(sched_idletask.o)
 .debug_info    0x0006ee93      0xff6 NuttX/nuttx/sched/libsched.a(sched_self.o)
 .debug_info    0x0006fe89     0x10cd NuttX/nuttx/sched/libsched.a(sched_get_stackinfo.o)
 .debug_info    0x00070f56     0x1357 NuttX/nuttx/sched/libsched.a(sem_wait.o)
 .debug_info    0x000722ad     0x12c0 NuttX/nuttx/sched/libsched.a(sem_post.o)
 .debug_info    0x0007356d      0x315 NuttX/nuttx/sched/libsched.a(sem_reset.o)
 .debug_info    0x00073882      0x28f NuttX/nuttx/sched/libsched.a(sig_kill.o)
 .debug_info    0x00073b11      0x169 NuttX/nuttx/sched/libsched.a(sig_usleep.o)
 .debug_info    0x00073c7a     0x1127 NuttX/nuttx/sched/libsched.a(task_exit.o)
 .debug_info    0x00074da1     0x1054 NuttX/nuttx/sched/libsched.a(task_getpid.o)
 .debug_info    0x00075df5     0x1324 NuttX/nuttx/sched/libsched.a(task_terminate.o)
 .debug_info    0x00077119     0x1054 NuttX/nuttx/sched/libsched.a(task_gettid.o)
 .debug_info    0x0007816d      0x53c NuttX/nuttx/sched/libsched.a(wd_start.o)
 .debug_info    0x000786a9      0x72b NuttX/nuttx/sched/libsched.a(sig_nanosleep.o)
 .debug_info    0x00078dd4     0x162a NuttX/nuttx/sched/libsched.a(sig_timedwait.o)
 .debug_info    0x0007a3fe      0x1bd NuttX/nuttx/arch/arm/src/libarch.a(stm32_timerisr.o)
 .debug_info    0x0007a5bb       0xfd NuttX/nuttx/arch/arm/src/libarch.a(arm_nputs.o)
 .debug_info    0x0007a6b8      0x132 NuttX/nuttx/mm/libmm.a(umm_realloc.o)
 .debug_info    0x0007a7ea      0x587 NuttX/nuttx/mm/libmm.a(mm_realloc.o)
 .debug_info    0x0007ad71      0x2f2 NuttX/nuttx/mm/libmm.a(mm_shrinkchunk.o)
 .debug_info    0x0007b063      0x286 NuttX/nuttx/libs/libc/libc.a(lib_umask.o)
 .debug_info    0x0007b2e9      0x104 NuttX/nuttx/libs/libc/libc.a(sq_addfirst.o)
 .debug_info    0x0007b3ed      0x141 NuttX/nuttx/libs/libc/libc.a(sq_addafter.o)
 .debug_info    0x0007b52e      0x14b NuttX/nuttx/libs/libc/libc.a(clock_ticks2time.o)
 .debug_info    0x0007b679      0x18a NuttX/nuttx/libs/libc/libc.a(clock_time2ticks.o)
 .debug_info    0x0007b803      0x1a3 NuttX/nuttx/libs/libc/libc.a(sem_setprotocol.o)
 .debug_info    0x0007b9a6      0x166 NuttX/nuttx/libs/libc/libc.a(lib_asprintf.o)
 .debug_info    0x0007bb0c      0x317 NuttX/nuttx/libs/libc/libc.a(lib_snprintf.o)
 .debug_info    0x0007be23      0x360 NuttX/nuttx/libs/libc/libc.a(lib_vasprintf.o)
 .debug_info    0x0007c183       0xf4 NuttX/nuttx/libs/libc/libc.a(lib_atol.o)
 .debug_info    0x0007c277      0x1c7 NuttX/nuttx/libs/libc/libc.a(lib_strtol.o)
 .debug_info    0x0007c43e      0x1fa NuttX/nuttx/libs/libc/libc.a(lib_strtoul.o)
 .debug_info    0x0007c638      0x125 NuttX/nuttx/libs/libc/libc.a(lib_checkbase.o)
 .debug_info    0x0007c75d      0x30d NuttX/nuttx/libs/libc/libc.a(lib_memoutstream.o)
 .debug_info    0x0007ca6a      0x197 NuttX/nuttx/libs/libc/libc.a(lib_nulloutstream.o)
 .debug_info    0x0007cc01       0xfc NuttX/nuttx/libs/libc/libc.a(lib_isbasedigit.o)
 .debug_info    0x0007ccfd       0xef NuttX/nuttx/libs/libc/libc.a(lib_skipspace.o)
 .debug_info    0x0007cdec      0x162 NuttX/nuttx/libs/libc/libc.a(lib_strdup.o)
 .debug_info    0x0007cf4e      0x12d NuttX/nuttx/libs/libc/libc.a(lib_strtok.o)
 .debug_info    0x0007d07b      0x143 NuttX/nuttx/libs/libc/libc.a(lib_strtokr.o)
 .debug_info    0x0007d1be       0xc3 NuttX/nuttx/libs/libc/libc.a(lib_strchr.o)
 .debug_info    0x0007d281      0x1a6 NuttX/nuttx/libs/libc/libc.a(lib_tcgetattr.o)
 .debug_info    0x0007d427      0x219 NuttX/nuttx/libs/libc/libc.a(lib_tcsetattr.o)
 .debug_info    0x0007d640      0x289 NuttX/nuttx/libs/libc/libc.a(task_getinfo.o)
 .debug_info    0x0007d8c9       0x67 NuttX/nuttx/libs/libc/libc.a(lib_isspace.o)
 .debug_info    0x0007d930       0xf6 NuttX/nuttx/libs/libc/libc.a(lib_tcflush.o)
 .debug_info    0x0007da26       0xde NuttX/nuttx/libs/libc/libc.a(lib_tcdrain.o)
 .debug_info    0x0007db04      0xcf3 NuttX/nuttx/fs/libfs.a(fs_ioctl.o)
 .debug_info    0x0007e7f7      0x9a5 NuttX/nuttx/fs/libfs.a(fs_inodegetpath.o)
 .debug_info    0x0007f19c       0xca NuttX/nuttx/sched/libsched.a(sched_processtimer.o)
 .debug_info    0x0007f266      0x11b NuttX/nuttx/libs/libc/libc.a(lib_strcat.o)
 .debug_info    0x0007f381      0xddc platforms/nuttx/src/bootloader/stm/stm32h7/arch_bootloader/libarch_bootloader.a(main.c.obj)
 .debug_info    0x0008015d      0x23a platforms/nuttx/src/bootloader/stm/stm32h7/arch_bootloader/libarch_bootloader.a(systick.c.obj)
 .debug_info    0x00080397      0x759 platforms/nuttx/src/px4/stm/stm32h7/board_reset/libarch_board_reset.a(board_reset.cpp.obj)
 .debug_info    0x00080af0     0x13f7 NuttX/nuttx/arch/arm/src/libarch.a(stm32_flash.o)
 .debug_info    0x00081ee7       0xc1 NuttX/nuttx/arch/arm/src/libarch.a(arm_systemreset.o)
 .debug_info    0x00081fa8      0x4d7 platforms/nuttx/src/bootloader/common/lib/libbootloader_lib.a(flash_cache.c.obj)

.debug_line     0x00000000    0x31e11
 *(.debug_line)
 .debug_line    0x00000000      0x145 NuttX/nuttx/arch/arm/src/libarch.a(arm_vectors.o)
 .debug_line    0x00000145       0x70 NuttX/nuttx/arch/arm/src/libarch.a(arm_exception.o)
 .debug_line    0x000001b5      0x2bd NuttX/nuttx/arch/arm/src/libarch.a(stm32_start.o)
 .debug_line    0x00000472      0x605 NuttX/nuttx/arch/arm/src/libarch.a(stm32_rcc.o)
 .debug_line    0x00000a77       0x60 NuttX/nuttx/arch/arm/src/libarch.a(stm32_lowputc.o)
 .debug_line    0x00000ad7      0x7ab NuttX/nuttx/arch/arm/src/libarch.a(stm32_pwr.o)
 .debug_line    0x00001282      0x1e0 NuttX/nuttx/arch/arm/src/libarch.a(arm_modifyreg32.o)
 .debug_line    0x00001462      0x270 NuttX/nuttx/arch/arm/src/libarch.a(arm_udelay.o)
 .debug_line    0x000016d2      0x233 NuttX/nuttx/arch/arm/src/libarch.a(arm_cache.o)
 .debug_line    0x00001905      0x20a NuttX/nuttx/arch/arm/src/libarch.a(arm_doirq.o)
 .debug_line    0x00001b0f      0x1b5 NuttX/nuttx/arch/arm/src/libarch.a(arm_fpuconfig.o)
 .debug_line    0x00001cc4      0x50b NuttX/nuttx/arch/arm/src/libarch.a(stm32_irq.o)
 .debug_line    0x000021cf      0x220 NuttX/nuttx/arch/arm/src/libarch.a(arm_hardfault.o)
 .debug_line    0x000023ef      0x1c1 NuttX/nuttx/arch/arm/src/libarch.a(arm_svcall.o)
 .debug_line    0x000025b0       0xe8 NuttX/nuttx/libs/libc/libc.a(arch_memcpy.o)
 .debug_line    0x00002698      0x107 NuttX/nuttx/libs/libc/libc.a(lib_assert.o)
 .debug_line    0x0000279f       0xa7 NuttX/nuttx/libs/libc/libc.a(lib_abort.o)
 .debug_line    0x00002846       0xc8 NuttX/nuttx/libs/libc/libc.a(lib_exit.o)
 .debug_line    0x0000290e      0x27d NuttX/nuttx/libs/libc/libc.a(lib_memset.o)
 .debug_line    0x00002b8b      0x1ee boards/hkust/nxt-dual/src/libdrivers_board.a(bootloader_main.c.obj)
 .debug_line    0x00002d79      0x207 boards/hkust/nxt-dual/src/libdrivers_board.a(usb.c.obj)
 .debug_line    0x00002f80      0x85c NuttX/nuttx/sched/libsched.a(nx_start.o)
 .debug_line    0x000037dc      0x195 NuttX/nuttx/sched/libsched.a(nx_bringup.o)
 .debug_line    0x00003971      0x315 NuttX/nuttx/sched/libsched.a(irq_attach.o)
 .debug_line    0x00003c86      0x3b7 NuttX/nuttx/sched/libsched.a(irq_dispatch.o)
 .debug_line    0x0000403d      0x208 NuttX/nuttx/sched/libsched.a(irq_unexpectedisr.o)
 .debug_line    0x00004245      0x35c NuttX/nuttx/sched/libsched.a(sched_lock.o)
 .debug_line    0x000045a1      0x3f9 NuttX/nuttx/sched/libsched.a(sched_unlock.o)
 .debug_line    0x0000499a      0x3ef NuttX/nuttx/sched/libsched.a(task_create.o)
 .debug_line    0x00004d89      0x525 NuttX/nuttx/sched/libsched.a(task_init.o)
 .debug_line    0x000052ae      0x71f NuttX/nuttx/sched/libsched.a(task_setup.o)
 .debug_line    0x000059cd      0x327 NuttX/nuttx/sched/libsched.a(task_activate.o)
 .debug_line    0x00005cf4      0x3da NuttX/nuttx/sched/libsched.a(task_start.o)
 .debug_line    0x000060ce      0x392 NuttX/nuttx/sched/libsched.a(exit.o)
 .debug_line    0x00006460      0x300 NuttX/nuttx/sched/libsched.a(tls_initinfo.o)
 .debug_line    0x00006760      0x412 NuttX/nuttx/sched/libsched.a(group_create.o)
 .debug_line    0x00006b72      0x437 NuttX/nuttx/sched/libsched.a(group_leave.o)
 .debug_line    0x00006fa9      0x31c NuttX/nuttx/sched/libsched.a(group_setupidlefiles.o)
 .debug_line    0x000072c5      0x31c NuttX/nuttx/sched/libsched.a(group_setuptaskfiles.o)
 .debug_line    0x000075e1      0x127 NuttX/nuttx/sched/libsched.a(irq_initialize.o)
 .debug_line    0x00007708      0x432 NuttX/nuttx/sched/libsched.a(sched_releasetcb.o)
 .debug_line    0x00007b3a      0x496 NuttX/nuttx/sched/libsched.a(sig_procmask.o)
 .debug_line    0x00007fd0      0x412 NuttX/nuttx/sched/libsched.a(sig_unmaskpendingsignal.o)
 .debug_line    0x000083e2      0x3c4 NuttX/nuttx/sched/libsched.a(sig_removependingsignal.o)
 .debug_line    0x000087a6      0x2a3 NuttX/nuttx/sched/libsched.a(sig_releasependingsignal.o)
 .debug_line    0x00008a49      0x1e1 NuttX/nuttx/sched/libsched.a(sig_lowest.o)
 .debug_line    0x00008c2a      0x39c NuttX/nuttx/sched/libsched.a(sig_cleanup.o)
 .debug_line    0x00008fc6      0x8d7 NuttX/nuttx/sched/libsched.a(sig_dispatch.o)
 .debug_line    0x0000989d      0x4ef NuttX/nuttx/sched/libsched.a(sig_deliver.o)
 .debug_line    0x00009d8c      0x617 NuttX/nuttx/sched/libsched.a(sig_default.o)
 .debug_line    0x0000a3a3      0x413 NuttX/nuttx/sched/libsched.a(task_exithook.o)
 .debug_line    0x0000a7b6      0x38a NuttX/nuttx/sched/libsched.a(task_recover.o)
 .debug_line    0x0000ab40      0x28a NuttX/nuttx/sched/libsched.a(task_initinfo.o)
 .debug_line    0x0000adca      0x270 NuttX/nuttx/sched/libsched.a(task_uninitinfo.o)
 .debug_line    0x0000b03a      0x2b3 NuttX/nuttx/sched/libsched.a(wd_recover.o)
 .debug_line    0x0000b2ed      0x2d2 NuttX/nuttx/sched/libsched.a(group_setupstreams.o)
 .debug_line    0x0000b5bf      0x3bc NuttX/nuttx/sched/libsched.a(sched_gettcb.o)
 .debug_line    0x0000b97b      0x3a7 NuttX/nuttx/sched/libsched.a(sched_suspend.o)
 .debug_line    0x0000bd22      0x32b NuttX/nuttx/sched/libsched.a(sched_continue.o)
 .debug_line    0x0000c04d      0x22e NuttX/nuttx/sched/libsched.a(sem_destroy.o)
 .debug_line    0x0000c27b      0x33e NuttX/nuttx/sched/libsched.a(sem_recover.o)
 .debug_line    0x0000c5b9      0x35d NuttX/nuttx/sched/libsched.a(sem_waitirq.o)
 .debug_line    0x0000c916      0x304 NuttX/nuttx/sched/libsched.a(sig_initialize.o)
 .debug_line    0x0000cc1a      0x76a NuttX/nuttx/sched/libsched.a(sig_action.o)
 .debug_line    0x0000d384      0x45c NuttX/nuttx/sched/libsched.a(sig_pending.o)
 .debug_line    0x0000d7e0      0x2d6 NuttX/nuttx/sched/libsched.a(sig_findaction.o)
 .debug_line    0x0000dab6      0x316 NuttX/nuttx/sched/libsched.a(sig_allocpendingsigaction.o)
 .debug_line    0x0000ddcc      0x2a6 NuttX/nuttx/sched/libsched.a(sig_releasependingsigaction.o)
 .debug_line    0x0000e072      0x351 NuttX/nuttx/sched/libsched.a(wd_cancel.o)
 .debug_line    0x0000e3c3      0x34c NuttX/nuttx/sched/libsched.a(sched_addblocked.o)
 .debug_line    0x0000e70f      0x333 NuttX/nuttx/sched/libsched.a(sched_removeblocked.o)
 .debug_line    0x0000ea42       0xdb NuttX/nuttx/sched/libsched.a(wd_initialize.o)
 .debug_line    0x0000eb1d      0x385 NuttX/nuttx/sched/libsched.a(sched_addprioritized.o)
 .debug_line    0x0000eea2       0xaf NuttX/nuttx/binfmt/libbinfmt.a(binfmt_initialize.o)
 .debug_line    0x0000ef51      0x229 NuttX/apps/libapps.a(cdcacm_main.c.Users.carbs.Desktop.PX4-Autopilot.platforms.nuttx.NuttX.apps.system.cdcacm.o)
 .debug_line    0x0000f17a      0x233 NuttX/nuttx/arch/arm/src/libarch.a(stm32_allocateheap.o)
 .debug_line    0x0000f3ad      0x525 NuttX/nuttx/arch/arm/src/libarch.a(stm32_gpio.o)
 .debug_line    0x0000f8d2      0x41a NuttX/nuttx/arch/arm/src/libarch.a(arm_assert.o)
 .debug_line    0x0000fcec      0x3b6 NuttX/nuttx/arch/arm/src/libarch.a(arm_blocktask.o)
 .debug_line    0x000100a2      0x3cb NuttX/nuttx/arch/arm/src/libarch.a(arm_createstack.o)
 .debug_line    0x0001046d      0x3d2 NuttX/nuttx/arch/arm/src/libarch.a(arm_exit.o)
 .debug_line    0x0001083f      0x141 NuttX/nuttx/arch/arm/src/libarch.a(arm_fullcontextrestore.o)
 .debug_line    0x00010980      0x262 NuttX/nuttx/arch/arm/src/libarch.a(arm_initialize.o)
 .debug_line    0x00010be2      0x398 NuttX/nuttx/arch/arm/src/libarch.a(arm_releasepending.o)
 .debug_line    0x00010f7a      0x305 NuttX/nuttx/arch/arm/src/libarch.a(arm_releasestack.o)
 .debug_line    0x0001127f      0x331 NuttX/nuttx/arch/arm/src/libarch.a(arm_stackframe.o)
 .debug_line    0x000115b0      0x145 NuttX/nuttx/arch/arm/src/libarch.a(arm_switchcontext.o)
 .debug_line    0x000116f5      0x38f NuttX/nuttx/arch/arm/src/libarch.a(arm_unblocktask.o)
 .debug_line    0x00011a84      0x328 NuttX/nuttx/arch/arm/src/libarch.a(arm_usestack.o)
 .debug_line    0x00011dac      0x565 NuttX/nuttx/arch/arm/src/libarch.a(arm_checkstack.o)
 .debug_line    0x00012311       0x9d NuttX/nuttx/arch/arm/src/libarch.a(arm_idle.o)
 .debug_line    0x000123ae      0x3fe NuttX/nuttx/arch/arm/src/libarch.a(arm_initialstate.o)
 .debug_line    0x000127ac      0x490 NuttX/nuttx/arch/arm/src/libarch.a(arm_schedulesigaction.o)
 .debug_line    0x00012c3c      0x426 NuttX/nuttx/arch/arm/src/libarch.a(arm_sigdeliver.o)
 .debug_line    0x00013062      0xeba NuttX/nuttx/arch/arm/src/libarch.a(stm32_serial.o)
 .debug_line    0x00013f1c     0x2977 NuttX/nuttx/arch/arm/src/libarch.a(stm32_otgdev.o)
 .debug_line    0x00016893       0xdf NuttX/nuttx/arch/arm/src/libarch.a(arm_mdelay.o)
 .debug_line    0x00016972      0x16c NuttX/nuttx/mm/libmm.a(umm_initialize.o)
 .debug_line    0x00016ade       0xfc NuttX/nuttx/mm/libmm.a(umm_free.o)
 .debug_line    0x00016bda      0x1b0 NuttX/nuttx/mm/libmm.a(umm_malloc.o)
 .debug_line    0x00016d8a      0x1b4 NuttX/nuttx/mm/libmm.a(umm_zalloc.o)
 .debug_line    0x00016f3e      0x39a NuttX/nuttx/mm/libmm.a(mm_initialize.o)
 .debug_line    0x000172d8      0x29f NuttX/nuttx/mm/libmm.a(mm_sem.o)
 .debug_line    0x00017577      0x221 NuttX/nuttx/mm/libmm.a(mm_addfreechunk.o)
 .debug_line    0x00017798      0x12f NuttX/nuttx/mm/libmm.a(mm_size2ndx.o)
 .debug_line    0x000178c7      0x3f0 NuttX/nuttx/mm/libmm.a(mm_free.o)
 .debug_line    0x00017cb7      0x414 NuttX/nuttx/mm/libmm.a(mm_malloc.o)
 .debug_line    0x000180cb      0x1c8 NuttX/nuttx/mm/libmm.a(mm_zalloc.o)
 .debug_line    0x00018293       0x8f NuttX/nuttx/mm/libmm.a(umm_globals.o)
 .debug_line    0x00018322      0x1d5 NuttX/nuttx/libs/libc/libc.a(lib_errno.o)
 .debug_line    0x000184f7       0xc7 NuttX/nuttx/libs/libc/libc.a(sq_addlast.o)
 .debug_line    0x000185be       0xe9 NuttX/nuttx/libs/libc/libc.a(sq_rem.o)
 .debug_line    0x000186a7       0xd5 NuttX/nuttx/libs/libc/libc.a(sq_remfirst.o)
 .debug_line    0x0001877c       0xdf NuttX/nuttx/libs/libc/libc.a(sq_remafter.o)
 .debug_line    0x0001885b       0xcf NuttX/nuttx/libs/libc/libc.a(dq_addlast.o)
 .debug_line    0x0001892a       0xcc NuttX/nuttx/libs/libc/libc.a(dq_addfirst.o)
 .debug_line    0x000189f6       0xd9 NuttX/nuttx/libs/libc/libc.a(dq_rem.o)
 .debug_line    0x00018acf      0x1af NuttX/nuttx/libs/libc/libc.a(task_startup.o)
 .debug_line    0x00018c7e      0x25d NuttX/nuttx/libs/libc/libc.a(sem_init.o)
 .debug_line    0x00018edb      0x233 NuttX/nuttx/libs/libc/libc.a(sem_getvalue.o)
 .debug_line    0x0001910e      0x1c8 NuttX/nuttx/libs/libc/libc.a(sig_addset.o)
 .debug_line    0x000192d6      0x1c8 NuttX/nuttx/libs/libc/libc.a(sig_delset.o)
 .debug_line    0x0001949e      0x166 NuttX/nuttx/libs/libc/libc.a(sig_emptyset.o)
 .debug_line    0x00019604      0x213 NuttX/nuttx/libs/libc/libc.a(sig_ismember.o)
 .debug_line    0x00019817      0x2a9 NuttX/nuttx/libs/libc/libc.a(lib_printf.o)
 .debug_line    0x00019ac0      0x319 NuttX/nuttx/libs/libc/libc.a(lib_libflushall.o)
 .debug_line    0x00019dd9      0x370 NuttX/nuttx/libs/libc/libc.a(lib_libfflush.o)
 .debug_line    0x0001a149      0x309 NuttX/nuttx/libs/libc/libc.a(lib_vfprintf.o)
 .debug_line    0x0001a452      0x3f2 NuttX/nuttx/libs/libc/libc.a(lib_libstream.o)
 .debug_line    0x0001a844      0x439 NuttX/nuttx/libs/libc/libc.a(lib_libfilesem.o)
 .debug_line    0x0001ac7d      0x31e NuttX/nuttx/libs/libc/libc.a(lib_stdoutstream.o)
 .debug_line    0x0001af9b       0xc1 NuttX/nuttx/libs/libc/libc.a(lib_strcpy.o)
 .debug_line    0x0001b05c      0x1a3 NuttX/nuttx/libs/libc/libc.a(lib_strlcpy.o)
 .debug_line    0x0001b1ff      0x15c NuttX/nuttx/libs/libc/libc.a(lib_strlen.o)
 .debug_line    0x0001b35b      0x191 NuttX/nuttx/libs/libc/libc.a(lib_strncpy.o)
 .debug_line    0x0001b4ec      0x1bf NuttX/nuttx/libs/libc/libc.a(lib_cfspeed.o)
 .debug_line    0x0001b6ab      0x1e1 NuttX/nuttx/libs/libc/libc.a(tls_getinfo.o)
 .debug_line    0x0001b88c      0x172 NuttX/nuttx/libs/libc/libc.a(lib_cxx_initialize.o)
 .debug_line    0x0001b9fe      0xd6c NuttX/nuttx/libs/libc/libc.a(lib_libvsprintf.o)
 .debug_line    0x0001c76a       0xc7 NuttX/nuttx/libs/libc/libc.a(lib_ultoa_invert.o)
 .debug_line    0x0001c831      0x2e4 NuttX/nuttx/libs/libc/libc.a(lib_dtoa_engine.o)
 .debug_line    0x0001cb15       0x4b NuttX/nuttx/libs/libc/libc.a(lib_dtoa_data.o)
 .debug_line    0x0001cb60      0x2ab NuttX/nuttx/libs/libc/libc.a(lib_fputc.o)
 .debug_line    0x0001ce0b      0x102 NuttX/nuttx/libs/libc/libc.a(lib_libnoflush.o)
 .debug_line    0x0001cf0d      0x172 NuttX/nuttx/libs/libc/libc.a(lib_strnlen.o)
 .debug_line    0x0001d07f      0x45b NuttX/nuttx/libs/libc/libc.a(lib_libfwrite.o)
 .debug_line    0x0001d4da      0x303 NuttX/nuttx/libs/libc/libc.a(lib_rdflush.o)
 .debug_line    0x0001d7dd      0x213 NuttX/nuttx/libs/libc/libc.a(lib_fseek.o)
 .debug_line    0x0001d9f0      0x2bc NuttX/nuttx/libs/libc/libc.a(lib_fseeko.o)
 .debug_line    0x0001dcac      0x285 NuttX/nuttx/libs/libc/libc.a(lib_wrflush.o)
 .debug_line    0x0001df31      0xca6 platforms/nuttx/src/bootloader/common/libbootloader.a(bl.c.obj)
 .debug_line    0x0001ebd7      0x2d5 platforms/nuttx/src/bootloader/common/lib/libbootloader_lib.a(cdcacm.c.obj)
 .debug_line    0x0001eeac      0x33f platforms/nuttx/src/bootloader/common/lib/libbootloader_lib.a(uart.c.obj)
 .debug_line    0x0001f1eb      0x2bf NuttX/nuttx/boards/libboards.a(boardctl.o)
 .debug_line    0x0001f4aa      0x121 NuttX/nuttx/drivers/libdrivers.a(drivers_initialize.o)
 .debug_line    0x0001f5cb      0x301 NuttX/nuttx/drivers/libdrivers.a(dev_null.o)
 .debug_line    0x0001f8cc     0x1586 NuttX/nuttx/drivers/libdrivers.a(serial.o)
 .debug_line    0x00020e52      0x41b NuttX/nuttx/drivers/libdrivers.a(serial_io.o)
 .debug_line    0x0002126d      0x1a2 NuttX/nuttx/drivers/libdrivers.a(syslog_flush.o)
 .debug_line    0x0002140f      0x10d NuttX/nuttx/drivers/libdrivers.a(syslog_initialize.o)
 .debug_line    0x0002151c     0x1c20 NuttX/nuttx/drivers/libdrivers.a(cdcacm.o)
 .debug_line    0x0002313c      0x69d NuttX/nuttx/drivers/libdrivers.a(cdcacm_desc.o)
 .debug_line    0x000237d9      0x273 NuttX/nuttx/drivers/libdrivers.a(syslog_channel.o)
 .debug_line    0x00023a4c       0xad NuttX/nuttx/fs/libfs.a(fs_initialize.o)
 .debug_line    0x00023af9      0x7fa NuttX/nuttx/fs/libfs.a(fs_files.o)
 .debug_line    0x000242f3      0x377 NuttX/nuttx/fs/libfs.a(fs_inode.o)
 .debug_line    0x0002466a      0x43c NuttX/nuttx/fs/libfs.a(fs_inodereserve.o)
 .debug_line    0x00024aa6      0x3b2 NuttX/nuttx/fs/libfs.a(fs_inodesearch.o)
 .debug_line    0x00024e58      0x259 NuttX/nuttx/fs/libfs.a(fs_close.o)
 .debug_line    0x000250b1      0x2c4 NuttX/nuttx/fs/libfs.a(fs_lseek.o)
 .debug_line    0x00025375      0x534 NuttX/nuttx/fs/libfs.a(fs_open.o)
 .debug_line    0x000258a9      0x2b4 NuttX/nuttx/fs/libfs.a(fs_read.o)
 .debug_line    0x00025b5d      0x2ab NuttX/nuttx/fs/libfs.a(fs_write.o)
 .debug_line    0x00025e08      0x698 NuttX/nuttx/fs/libfs.a(fs_dir.o)
 .debug_line    0x000264a0      0x503 NuttX/nuttx/fs/libfs.a(fs_fdopen.o)
 .debug_line    0x000269a3      0x24a NuttX/nuttx/fs/libfs.a(fs_registerdriver.o)
 .debug_line    0x00026bed      0x120 NuttX/nuttx/fs/libfs.a(fs_unregisterdriver.o)
 .debug_line    0x00026d0d      0x239 NuttX/nuttx/fs/libfs.a(fs_inodeaddref.o)
 .debug_line    0x00026f46      0x23d NuttX/nuttx/fs/libfs.a(fs_inodefind.o)
 .debug_line    0x00027183      0x26b NuttX/nuttx/fs/libfs.a(fs_inoderelease.o)
 .debug_line    0x000273ee      0x2de NuttX/nuttx/fs/libfs.a(fs_inoderemove.o)
 .debug_line    0x000276cc      0x1d7 NuttX/nuttx/fs/libfs.a(fs_inodefree.o)
 .debug_line    0x000278a3      0x27a NuttX/nuttx/sched/libsched.a(clock_initialize.o)
 .debug_line    0x00027b1d      0x32c NuttX/nuttx/sched/libsched.a(sched_getfiles.o)
 .debug_line    0x00027e49      0x38d NuttX/nuttx/sched/libsched.a(sched_addreadytorun.o)
 .debug_line    0x000281d6      0x367 NuttX/nuttx/sched/libsched.a(sched_removereadytorun.o)
 .debug_line    0x0002853d      0x3d7 NuttX/nuttx/sched/libsched.a(sched_mergepending.o)
 .debug_line    0x00028914      0x322 NuttX/nuttx/sched/libsched.a(sched_getstreams.o)
 .debug_line    0x00028c36      0x33f NuttX/nuttx/sched/libsched.a(sched_idletask.o)
 .debug_line    0x00028f75      0x310 NuttX/nuttx/sched/libsched.a(sched_self.o)
 .debug_line    0x00029285      0x38c NuttX/nuttx/sched/libsched.a(sched_get_stackinfo.o)
 .debug_line    0x00029611      0x4a4 NuttX/nuttx/sched/libsched.a(sem_wait.o)
 .debug_line    0x00029ab5      0x48b NuttX/nuttx/sched/libsched.a(sem_post.o)
 .debug_line    0x00029f40      0x2c2 NuttX/nuttx/sched/libsched.a(sem_reset.o)
 .debug_line    0x0002a202      0x26c NuttX/nuttx/sched/libsched.a(sig_kill.o)
 .debug_line    0x0002a46e      0x1e1 NuttX/nuttx/sched/libsched.a(sig_usleep.o)
 .debug_line    0x0002a64f      0x3cb NuttX/nuttx/sched/libsched.a(task_exit.o)
 .debug_line    0x0002aa1a      0x33d NuttX/nuttx/sched/libsched.a(task_getpid.o)
 .debug_line    0x0002ad57      0x433 NuttX/nuttx/sched/libsched.a(task_terminate.o)
 .debug_line    0x0002b18a      0x33d NuttX/nuttx/sched/libsched.a(task_gettid.o)
 .debug_line    0x0002b4c7      0x463 NuttX/nuttx/sched/libsched.a(wd_start.o)
 .debug_line    0x0002b92a      0x43e NuttX/nuttx/sched/libsched.a(sig_nanosleep.o)
 .debug_line    0x0002bd68      0x5a4 NuttX/nuttx/sched/libsched.a(sig_timedwait.o)
 .debug_line    0x0002c30c      0x19a NuttX/nuttx/arch/arm/src/libarch.a(stm32_timerisr.o)
 .debug_line    0x0002c4a6      0x16c NuttX/nuttx/arch/arm/src/libarch.a(arm_nputs.o)
 .debug_line    0x0002c612      0x1b6 NuttX/nuttx/mm/libmm.a(umm_realloc.o)
 .debug_line    0x0002c7c8      0x4dc NuttX/nuttx/mm/libmm.a(mm_realloc.o)
 .debug_line    0x0002cca4      0x28d NuttX/nuttx/mm/libmm.a(mm_shrinkchunk.o)
 .debug_line    0x0002cf31      0x202 NuttX/nuttx/libs/libc/libc.a(lib_umask.o)
 .debug_line    0x0002d133       0xbc NuttX/nuttx/libs/libc/libc.a(sq_addfirst.o)
 .debug_line    0x0002d1ef       0xc1 NuttX/nuttx/libs/libc/libc.a(sq_addafter.o)
 .debug_line    0x0002d2b0      0x1cc NuttX/nuttx/libs/libc/libc.a(clock_ticks2time.o)
 .debug_line    0x0002d47c      0x1dd NuttX/nuttx/libs/libc/libc.a(clock_time2ticks.o)
 .debug_line    0x0002d659      0x218 NuttX/nuttx/libs/libc/libc.a(sem_setprotocol.o)
 .debug_line    0x0002d871      0x123 NuttX/nuttx/libs/libc/libc.a(lib_asprintf.o)
 .debug_line    0x0002d994      0x25c NuttX/nuttx/libs/libc/libc.a(lib_snprintf.o)
 .debug_line    0x0002dbf0      0x274 NuttX/nuttx/libs/libc/libc.a(lib_vasprintf.o)
 .debug_line    0x0002de64       0x9c NuttX/nuttx/libs/libc/libc.a(lib_atol.o)
 .debug_line    0x0002df00      0x1c6 NuttX/nuttx/libs/libc/libc.a(lib_strtol.o)
 .debug_line    0x0002e0c6      0x228 NuttX/nuttx/libs/libc/libc.a(lib_strtoul.o)
 .debug_line    0x0002e2ee      0x138 NuttX/nuttx/libs/libc/libc.a(lib_checkbase.o)
 .debug_line    0x0002e426      0x270 NuttX/nuttx/libs/libc/libc.a(lib_memoutstream.o)
 .debug_line    0x0002e696       0xdd NuttX/nuttx/libs/libc/libc.a(lib_nulloutstream.o)
 .debug_line    0x0002e773       0xf2 NuttX/nuttx/libs/libc/libc.a(lib_isbasedigit.o)
 .debug_line    0x0002e865       0xbc NuttX/nuttx/libs/libc/libc.a(lib_skipspace.o)
 .debug_line    0x0002e921      0x173 NuttX/nuttx/libs/libc/libc.a(lib_strdup.o)
 .debug_line    0x0002ea94       0xa1 NuttX/nuttx/libs/libc/libc.a(lib_strtok.o)
 .debug_line    0x0002eb35      0x11e NuttX/nuttx/libs/libc/libc.a(lib_strtokr.o)
 .debug_line    0x0002ec53       0xb8 NuttX/nuttx/libs/libc/libc.a(lib_strchr.o)
 .debug_line    0x0002ed0b      0x160 NuttX/nuttx/libs/libc/libc.a(lib_tcgetattr.o)
 .debug_line    0x0002ee6b      0x17d NuttX/nuttx/libs/libc/libc.a(lib_tcsetattr.o)
 .debug_line    0x0002efe8      0x1bc NuttX/nuttx/libs/libc/libc.a(task_getinfo.o)
 .debug_line    0x0002f1a4       0xad NuttX/nuttx/libs/libc/libc.a(lib_isspace.o)
 .debug_line    0x0002f251       0xfb NuttX/nuttx/libs/libc/libc.a(lib_tcflush.o)
 .debug_line    0x0002f34c       0xf7 NuttX/nuttx/libs/libc/libc.a(lib_tcdrain.o)
 .debug_line    0x0002f443      0x48a NuttX/nuttx/fs/libfs.a(fs_ioctl.o)
 .debug_line    0x0002f8cd      0x213 NuttX/nuttx/fs/libfs.a(fs_inodegetpath.o)
 .debug_line    0x0002fae0      0x17d NuttX/nuttx/sched/libsched.a(sched_processtimer.o)
 .debug_line    0x0002fc5d      0x18a NuttX/nuttx/libs/libc/libc.a(lib_strcat.o)
 .debug_line    0x0002fde7      0x990 platforms/nuttx/src/bootloader/stm/stm32h7/arch_bootloader/libarch_bootloader.a(main.c.obj)
 .debug_line    0x00030777      0x25a platforms/nuttx/src/bootloader/stm/stm32h7/arch_bootloader/libarch_bootloader.a(systick.c.obj)
 .debug_line    0x000309d1      0x3bb platforms/nuttx/src/px4/stm/stm32h7/board_reset/libarch_board_reset.a(board_reset.cpp.obj)
 .debug_line    0x00030d8c      0xb0b NuttX/nuttx/arch/arm/src/libarch.a(stm32_flash.o)
 .debug_line    0x00031897      0x16c NuttX/nuttx/arch/arm/src/libarch.a(arm_systemreset.o)
 .debug_line    0x00031a03      0x40e platforms/nuttx/src/bootloader/common/lib/libbootloader_lib.a(flash_cache.c.obj)

.debug_pubnames
 *(.debug_pubnames)

.debug_aranges  0x00000000     0x2810
 *(.debug_aranges)
 .debug_aranges
                0x00000000       0x18 NuttX/nuttx/arch/arm/src/libarch.a(arm_vectors.o)
 .debug_aranges
                0x00000018       0x20 NuttX/nuttx/arch/arm/src/libarch.a(arm_exception.o)
 .debug_aranges
                0x00000038       0x20 NuttX/nuttx/arch/arm/src/libarch.a(stm32_start.o)
 .debug_aranges
                0x00000058       0x28 NuttX/nuttx/arch/arm/src/libarch.a(stm32_rcc.o)
 .debug_aranges
                0x00000080       0x28 NuttX/nuttx/arch/arm/src/libarch.a(stm32_lowputc.o)
 .debug_aranges
                0x000000a8       0x58 NuttX/nuttx/arch/arm/src/libarch.a(stm32_pwr.o)
 .debug_aranges
                0x00000100       0x20 NuttX/nuttx/arch/arm/src/libarch.a(arm_modifyreg32.o)
 .debug_aranges
                0x00000120       0x20 NuttX/nuttx/arch/arm/src/libarch.a(arm_udelay.o)
 .debug_aranges
                0x00000140       0x38 NuttX/nuttx/arch/arm/src/libarch.a(arm_cache.o)
 .debug_aranges
                0x00000178       0x20 NuttX/nuttx/arch/arm/src/libarch.a(arm_doirq.o)
 .debug_aranges
                0x00000198       0x20 NuttX/nuttx/arch/arm/src/libarch.a(arm_fpuconfig.o)
 .debug_aranges
                0x000001b8       0x40 NuttX/nuttx/arch/arm/src/libarch.a(stm32_irq.o)
 .debug_aranges
                0x000001f8       0x20 NuttX/nuttx/arch/arm/src/libarch.a(arm_hardfault.o)
 .debug_aranges
                0x00000218       0x20 NuttX/nuttx/arch/arm/src/libarch.a(arm_svcall.o)
 .debug_aranges
                0x00000238       0x20 NuttX/nuttx/libs/libc/libc.a(arch_memcpy.o)
 .debug_aranges
                0x00000258       0x20 NuttX/nuttx/libs/libc/libc.a(lib_assert.o)
 .debug_aranges
                0x00000278       0x20 NuttX/nuttx/libs/libc/libc.a(lib_abort.o)
 .debug_aranges
                0x00000298       0x28 NuttX/nuttx/libs/libc/libc.a(lib_exit.o)
 .debug_aranges
                0x000002c0       0x20 NuttX/nuttx/libs/libc/libc.a(lib_memset.o)
 .debug_aranges
                0x000002e0       0x40 boards/hkust/nxt-dual/src/libdrivers_board.a(bootloader_main.c.obj)
 .debug_aranges
                0x00000320       0x28 boards/hkust/nxt-dual/src/libdrivers_board.a(usb.c.obj)
 .debug_aranges
                0x00000348       0x20 NuttX/nuttx/sched/libsched.a(nx_start.o)
 .debug_aranges
                0x00000368       0x28 NuttX/nuttx/sched/libsched.a(nx_bringup.o)
 .debug_aranges
                0x00000390       0x20 NuttX/nuttx/sched/libsched.a(irq_attach.o)
 .debug_aranges
                0x000003b0       0x20 NuttX/nuttx/sched/libsched.a(irq_dispatch.o)
 .debug_aranges
                0x000003d0       0x20 NuttX/nuttx/sched/libsched.a(irq_unexpectedisr.o)
 .debug_aranges
                0x000003f0       0x20 NuttX/nuttx/sched/libsched.a(sched_lock.o)
 .debug_aranges
                0x00000410       0x20 NuttX/nuttx/sched/libsched.a(sched_unlock.o)
 .debug_aranges
                0x00000430       0x40 NuttX/nuttx/sched/libsched.a(task_create.o)
 .debug_aranges
                0x00000470       0x28 NuttX/nuttx/sched/libsched.a(task_init.o)
 .debug_aranges
                0x00000498       0x28 NuttX/nuttx/sched/libsched.a(task_setup.o)
 .debug_aranges
                0x000004c0       0x20 NuttX/nuttx/sched/libsched.a(task_activate.o)
 .debug_aranges
                0x000004e0       0x20 NuttX/nuttx/sched/libsched.a(task_start.o)
 .debug_aranges
                0x00000500       0x20 NuttX/nuttx/sched/libsched.a(exit.o)
 .debug_aranges
                0x00000520       0x20 NuttX/nuttx/sched/libsched.a(tls_initinfo.o)
 .debug_aranges
                0x00000540       0x28 NuttX/nuttx/sched/libsched.a(group_create.o)
 .debug_aranges
                0x00000568       0x20 NuttX/nuttx/sched/libsched.a(group_leave.o)
 .debug_aranges
                0x00000588       0x20 NuttX/nuttx/sched/libsched.a(group_setupidlefiles.o)
 .debug_aranges
                0x000005a8       0x20 NuttX/nuttx/sched/libsched.a(group_setuptaskfiles.o)
 .debug_aranges
                0x000005c8       0x20 NuttX/nuttx/sched/libsched.a(irq_initialize.o)
 .debug_aranges
                0x000005e8       0x20 NuttX/nuttx/sched/libsched.a(sched_releasetcb.o)
 .debug_aranges
                0x00000608       0x28 NuttX/nuttx/sched/libsched.a(sig_procmask.o)
 .debug_aranges
                0x00000630       0x20 NuttX/nuttx/sched/libsched.a(sig_unmaskpendingsignal.o)
 .debug_aranges
                0x00000650       0x20 NuttX/nuttx/sched/libsched.a(sig_removependingsignal.o)
 .debug_aranges
                0x00000670       0x20 NuttX/nuttx/sched/libsched.a(sig_releasependingsignal.o)
 .debug_aranges
                0x00000690       0x20 NuttX/nuttx/sched/libsched.a(sig_lowest.o)
 .debug_aranges
                0x000006b0       0x28 NuttX/nuttx/sched/libsched.a(sig_cleanup.o)
 .debug_aranges
                0x000006d8       0x28 NuttX/nuttx/sched/libsched.a(sig_dispatch.o)
 .debug_aranges
                0x00000700       0x20 NuttX/nuttx/sched/libsched.a(sig_deliver.o)
 .debug_aranges
                0x00000720       0x50 NuttX/nuttx/sched/libsched.a(sig_default.o)
 .debug_aranges
                0x00000770       0x20 NuttX/nuttx/sched/libsched.a(task_exithook.o)
 .debug_aranges
                0x00000790       0x20 NuttX/nuttx/sched/libsched.a(task_recover.o)
 .debug_aranges
                0x000007b0       0x20 NuttX/nuttx/sched/libsched.a(task_initinfo.o)
 .debug_aranges
                0x000007d0       0x20 NuttX/nuttx/sched/libsched.a(task_uninitinfo.o)
 .debug_aranges
                0x000007f0       0x20 NuttX/nuttx/sched/libsched.a(wd_recover.o)
 .debug_aranges
                0x00000810       0x20 NuttX/nuttx/sched/libsched.a(group_setupstreams.o)
 .debug_aranges
                0x00000830       0x20 NuttX/nuttx/sched/libsched.a(sched_gettcb.o)
 .debug_aranges
                0x00000850       0x20 NuttX/nuttx/sched/libsched.a(sched_suspend.o)
 .debug_aranges
                0x00000870       0x20 NuttX/nuttx/sched/libsched.a(sched_continue.o)
 .debug_aranges
                0x00000890       0x28 NuttX/nuttx/sched/libsched.a(sem_destroy.o)
 .debug_aranges
                0x000008b8       0x20 NuttX/nuttx/sched/libsched.a(sem_recover.o)
 .debug_aranges
                0x000008d8       0x20 NuttX/nuttx/sched/libsched.a(sem_waitirq.o)
 .debug_aranges
                0x000008f8       0x20 NuttX/nuttx/sched/libsched.a(sig_initialize.o)
 .debug_aranges
                0x00000918       0x30 NuttX/nuttx/sched/libsched.a(sig_action.o)
 .debug_aranges
                0x00000948       0x28 NuttX/nuttx/sched/libsched.a(sig_pending.o)
 .debug_aranges
                0x00000970       0x20 NuttX/nuttx/sched/libsched.a(sig_findaction.o)
 .debug_aranges
                0x00000990       0x20 NuttX/nuttx/sched/libsched.a(sig_allocpendingsigaction.o)
 .debug_aranges
                0x000009b0       0x20 NuttX/nuttx/sched/libsched.a(sig_releasependingsigaction.o)
 .debug_aranges
                0x000009d0       0x20 NuttX/nuttx/sched/libsched.a(wd_cancel.o)
 .debug_aranges
                0x000009f0       0x20 NuttX/nuttx/sched/libsched.a(sched_addblocked.o)
 .debug_aranges
                0x00000a10       0x20 NuttX/nuttx/sched/libsched.a(sched_removeblocked.o)
 .debug_aranges
                0x00000a30       0x18 NuttX/nuttx/sched/libsched.a(wd_initialize.o)
 .debug_aranges
                0x00000a48       0x20 NuttX/nuttx/sched/libsched.a(sched_addprioritized.o)
 .debug_aranges
                0x00000a68       0x20 NuttX/nuttx/binfmt/libbinfmt.a(binfmt_initialize.o)
 .debug_aranges
                0x00000a88       0x28 NuttX/apps/libapps.a(cdcacm_main.c.Users.carbs.Desktop.PX4-Autopilot.platforms.nuttx.NuttX.apps.system.cdcacm.o)
 .debug_aranges
                0x00000ab0       0x20 NuttX/nuttx/arch/arm/src/libarch.a(stm32_allocateheap.o)
 .debug_aranges
                0x00000ad0       0x40 NuttX/nuttx/arch/arm/src/libarch.a(stm32_gpio.o)
 .debug_aranges
                0x00000b10       0x20 NuttX/nuttx/arch/arm/src/libarch.a(arm_assert.o)
 .debug_aranges
                0x00000b30       0x20 NuttX/nuttx/arch/arm/src/libarch.a(arm_blocktask.o)
 .debug_aranges
                0x00000b50       0x20 NuttX/nuttx/arch/arm/src/libarch.a(arm_createstack.o)
 .debug_aranges
                0x00000b70       0x20 NuttX/nuttx/arch/arm/src/libarch.a(arm_exit.o)
 .debug_aranges
                0x00000b90       0x20 NuttX/nuttx/arch/arm/src/libarch.a(arm_fullcontextrestore.o)
 .debug_aranges
                0x00000bb0       0x20 NuttX/nuttx/arch/arm/src/libarch.a(arm_initialize.o)
 .debug_aranges
                0x00000bd0       0x20 NuttX/nuttx/arch/arm/src/libarch.a(arm_releasepending.o)
 .debug_aranges
                0x00000bf0       0x20 NuttX/nuttx/arch/arm/src/libarch.a(arm_releasestack.o)
 .debug_aranges
                0x00000c10       0x20 NuttX/nuttx/arch/arm/src/libarch.a(arm_stackframe.o)
 .debug_aranges
                0x00000c30       0x20 NuttX/nuttx/arch/arm/src/libarch.a(arm_switchcontext.o)
 .debug_aranges
                0x00000c50       0x20 NuttX/nuttx/arch/arm/src/libarch.a(arm_unblocktask.o)
 .debug_aranges
                0x00000c70       0x20 NuttX/nuttx/arch/arm/src/libarch.a(arm_usestack.o)
 .debug_aranges
                0x00000c90       0x58 NuttX/nuttx/arch/arm/src/libarch.a(arm_checkstack.o)
 .debug_aranges
                0x00000ce8       0x20 NuttX/nuttx/arch/arm/src/libarch.a(arm_idle.o)
 .debug_aranges
                0x00000d08       0x20 NuttX/nuttx/arch/arm/src/libarch.a(arm_initialstate.o)
 .debug_aranges
                0x00000d28       0x20 NuttX/nuttx/arch/arm/src/libarch.a(arm_schedulesigaction.o)
 .debug_aranges
                0x00000d48       0x20 NuttX/nuttx/arch/arm/src/libarch.a(arm_sigdeliver.o)
 .debug_aranges
                0x00000d68       0xb0 NuttX/nuttx/arch/arm/src/libarch.a(stm32_serial.o)
 .debug_aranges
                0x00000e18      0x148 NuttX/nuttx/arch/arm/src/libarch.a(stm32_otgdev.o)
 .debug_aranges
                0x00000f60       0x20 NuttX/nuttx/arch/arm/src/libarch.a(arm_mdelay.o)
 .debug_aranges
                0x00000f80       0x20 NuttX/nuttx/mm/libmm.a(umm_initialize.o)
 .debug_aranges
                0x00000fa0       0x20 NuttX/nuttx/mm/libmm.a(umm_free.o)
 .debug_aranges
                0x00000fc0       0x20 NuttX/nuttx/mm/libmm.a(umm_malloc.o)
 .debug_aranges
                0x00000fe0       0x20 NuttX/nuttx/mm/libmm.a(umm_zalloc.o)
 .debug_aranges
                0x00001000       0x30 NuttX/nuttx/mm/libmm.a(mm_initialize.o)
 .debug_aranges
                0x00001030       0x38 NuttX/nuttx/mm/libmm.a(mm_sem.o)
 .debug_aranges
                0x00001068       0x20 NuttX/nuttx/mm/libmm.a(mm_addfreechunk.o)
 .debug_aranges
                0x00001088       0x20 NuttX/nuttx/mm/libmm.a(mm_size2ndx.o)
 .debug_aranges
                0x000010a8       0x20 NuttX/nuttx/mm/libmm.a(mm_free.o)
 .debug_aranges
                0x000010c8       0x20 NuttX/nuttx/mm/libmm.a(mm_malloc.o)
 .debug_aranges
                0x000010e8       0x20 NuttX/nuttx/mm/libmm.a(mm_zalloc.o)
 .debug_aranges
                0x00001108       0x18 NuttX/nuttx/mm/libmm.a(umm_globals.o)
 .debug_aranges
                0x00001120       0x20 NuttX/nuttx/libs/libc/libc.a(lib_errno.o)
 .debug_aranges
                0x00001140       0x20 NuttX/nuttx/libs/libc/libc.a(sq_addlast.o)
 .debug_aranges
                0x00001160       0x20 NuttX/nuttx/libs/libc/libc.a(sq_rem.o)
 .debug_aranges
                0x00001180       0x20 NuttX/nuttx/libs/libc/libc.a(sq_remfirst.o)
 .debug_aranges
                0x000011a0       0x20 NuttX/nuttx/libs/libc/libc.a(sq_remafter.o)
 .debug_aranges
                0x000011c0       0x20 NuttX/nuttx/libs/libc/libc.a(dq_addlast.o)
 .debug_aranges
                0x000011e0       0x20 NuttX/nuttx/libs/libc/libc.a(dq_addfirst.o)
 .debug_aranges
                0x00001200       0x20 NuttX/nuttx/libs/libc/libc.a(dq_rem.o)
 .debug_aranges
                0x00001220       0x20 NuttX/nuttx/libs/libc/libc.a(task_startup.o)
 .debug_aranges
                0x00001240       0x28 NuttX/nuttx/libs/libc/libc.a(sem_init.o)
 .debug_aranges
                0x00001268       0x28 NuttX/nuttx/libs/libc/libc.a(sem_getvalue.o)
 .debug_aranges
                0x00001290       0x28 NuttX/nuttx/libs/libc/libc.a(sig_addset.o)
 .debug_aranges
                0x000012b8       0x28 NuttX/nuttx/libs/libc/libc.a(sig_delset.o)
 .debug_aranges
                0x000012e0       0x20 NuttX/nuttx/libs/libc/libc.a(sig_emptyset.o)
 .debug_aranges
                0x00001300       0x28 NuttX/nuttx/libs/libc/libc.a(sig_ismember.o)
 .debug_aranges
                0x00001328       0x20 NuttX/nuttx/libs/libc/libc.a(lib_printf.o)
 .debug_aranges
                0x00001348       0x20 NuttX/nuttx/libs/libc/libc.a(lib_libflushall.o)
 .debug_aranges
                0x00001368       0x20 NuttX/nuttx/libs/libc/libc.a(lib_libfflush.o)
 .debug_aranges
                0x00001388       0x20 NuttX/nuttx/libs/libc/libc.a(lib_vfprintf.o)
 .debug_aranges
                0x000013a8       0x40 NuttX/nuttx/libs/libc/libc.a(lib_libstream.o)
 .debug_aranges
                0x000013e8       0x30 NuttX/nuttx/libs/libc/libc.a(lib_libfilesem.o)
 .debug_aranges
                0x00001418       0x30 NuttX/nuttx/libs/libc/libc.a(lib_stdoutstream.o)
 .debug_aranges
                0x00001448       0x20 NuttX/nuttx/libs/libc/libc.a(lib_strcpy.o)
 .debug_aranges
                0x00001468       0x20 NuttX/nuttx/libs/libc/libc.a(lib_strlcpy.o)
 .debug_aranges
                0x00001488       0x20 NuttX/nuttx/libs/libc/libc.a(lib_strlen.o)
 .debug_aranges
                0x000014a8       0x20 NuttX/nuttx/libs/libc/libc.a(lib_strncpy.o)
 .debug_aranges
                0x000014c8       0x28 NuttX/nuttx/libs/libc/libc.a(lib_cfspeed.o)
 .debug_aranges
                0x000014f0       0x20 NuttX/nuttx/libs/libc/libc.a(tls_getinfo.o)
 .debug_aranges
                0x00001510       0x20 NuttX/nuttx/libs/libc/libc.a(lib_cxx_initialize.o)
 .debug_aranges
                0x00001530       0x28 NuttX/nuttx/libs/libc/libc.a(lib_libvsprintf.o)
 .debug_aranges
                0x00001558       0x20 NuttX/nuttx/libs/libc/libc.a(lib_ultoa_invert.o)
 .debug_aranges
                0x00001578       0x20 NuttX/nuttx/libs/libc/libc.a(lib_dtoa_engine.o)
 .debug_aranges
                0x00001598       0x18 NuttX/nuttx/libs/libc/libc.a(lib_dtoa_data.o)
 .debug_aranges
                0x000015b0       0x20 NuttX/nuttx/libs/libc/libc.a(lib_fputc.o)
 .debug_aranges
                0x000015d0       0x20 NuttX/nuttx/libs/libc/libc.a(lib_libnoflush.o)
 .debug_aranges
                0x000015f0       0x20 NuttX/nuttx/libs/libc/libc.a(lib_strnlen.o)
 .debug_aranges
                0x00001610       0x20 NuttX/nuttx/libs/libc/libc.a(lib_libfwrite.o)
 .debug_aranges
                0x00001630       0x20 NuttX/nuttx/libs/libc/libc.a(lib_rdflush.o)
 .debug_aranges
                0x00001650       0x20 NuttX/nuttx/libs/libc/libc.a(lib_fseek.o)
 .debug_aranges
                0x00001670       0x20 NuttX/nuttx/libs/libc/libc.a(lib_fseeko.o)
 .debug_aranges
                0x00001690       0x20 NuttX/nuttx/libs/libc/libc.a(lib_wrflush.o)
 .debug_aranges
                0x000016b0       0x88 platforms/nuttx/src/bootloader/common/libbootloader.a(bl.c.obj)
 .debug_aranges
                0x00001738       0x38 platforms/nuttx/src/bootloader/common/lib/libbootloader_lib.a(cdcacm.c.obj)
 .debug_aranges
                0x00001770       0x38 platforms/nuttx/src/bootloader/common/lib/libbootloader_lib.a(uart.c.obj)
 .debug_aranges
                0x000017a8       0x20 NuttX/nuttx/boards/libboards.a(boardctl.o)
 .debug_aranges
                0x000017c8       0x20 NuttX/nuttx/drivers/libdrivers.a(drivers_initialize.o)
 .debug_aranges
                0x000017e8       0x38 NuttX/nuttx/drivers/libdrivers.a(dev_null.o)
 .debug_aranges
                0x00001820       0x98 NuttX/nuttx/drivers/libdrivers.a(serial.o)
 .debug_aranges
                0x000018b8       0x28 NuttX/nuttx/drivers/libdrivers.a(serial_io.o)
 .debug_aranges
                0x000018e0       0x20 NuttX/nuttx/drivers/libdrivers.a(syslog_flush.o)
 .debug_aranges
                0x00001900       0x20 NuttX/nuttx/drivers/libdrivers.a(syslog_initialize.o)
 .debug_aranges
                0x00001920      0x108 NuttX/nuttx/drivers/libdrivers.a(cdcacm.o)
 .debug_aranges
                0x00001a28       0x38 NuttX/nuttx/drivers/libdrivers.a(cdcacm_desc.o)
 .debug_aranges
                0x00001a60       0x38 NuttX/nuttx/drivers/libdrivers.a(syslog_channel.o)
 .debug_aranges
                0x00001a98       0x20 NuttX/nuttx/fs/libfs.a(fs_initialize.o)
 .debug_aranges
                0x00001ab8       0x68 NuttX/nuttx/fs/libfs.a(fs_files.o)
 .debug_aranges
                0x00001b20       0x30 NuttX/nuttx/fs/libfs.a(fs_inode.o)
 .debug_aranges
                0x00001b50       0x30 NuttX/nuttx/fs/libfs.a(fs_inodereserve.o)
 .debug_aranges
                0x00001b80       0x28 NuttX/nuttx/fs/libfs.a(fs_inodesearch.o)
 .debug_aranges
                0x00001ba8       0x20 NuttX/nuttx/fs/libfs.a(fs_close.o)
 .debug_aranges
                0x00001bc8       0x30 NuttX/nuttx/fs/libfs.a(fs_lseek.o)
 .debug_aranges
                0x00001bf8       0x48 NuttX/nuttx/fs/libfs.a(fs_open.o)
 .debug_aranges
                0x00001c40       0x30 NuttX/nuttx/fs/libfs.a(fs_read.o)
 .debug_aranges
                0x00001c70       0x30 NuttX/nuttx/fs/libfs.a(fs_write.o)
 .debug_aranges
                0x00001ca0       0x48 NuttX/nuttx/fs/libfs.a(fs_dir.o)
 .debug_aranges
                0x00001ce8       0x20 NuttX/nuttx/fs/libfs.a(fs_fdopen.o)
 .debug_aranges
                0x00001d08       0x20 NuttX/nuttx/fs/libfs.a(fs_registerdriver.o)
 .debug_aranges
                0x00001d28       0x20 NuttX/nuttx/fs/libfs.a(fs_unregisterdriver.o)
 .debug_aranges
                0x00001d48       0x20 NuttX/nuttx/fs/libfs.a(fs_inodeaddref.o)
 .debug_aranges
                0x00001d68       0x20 NuttX/nuttx/fs/libfs.a(fs_inodefind.o)
 .debug_aranges
                0x00001d88       0x20 NuttX/nuttx/fs/libfs.a(fs_inoderelease.o)
 .debug_aranges
                0x00001da8       0x28 NuttX/nuttx/fs/libfs.a(fs_inoderemove.o)
 .debug_aranges
                0x00001dd0       0x20 NuttX/nuttx/fs/libfs.a(fs_inodefree.o)
 .debug_aranges
                0x00001df0       0x30 NuttX/nuttx/sched/libsched.a(clock_initialize.o)
 .debug_aranges
                0x00001e20       0x20 NuttX/nuttx/sched/libsched.a(sched_getfiles.o)
 .debug_aranges
                0x00001e40       0x20 NuttX/nuttx/sched/libsched.a(sched_addreadytorun.o)
 .debug_aranges
                0x00001e60       0x20 NuttX/nuttx/sched/libsched.a(sched_removereadytorun.o)
 .debug_aranges
                0x00001e80       0x20 NuttX/nuttx/sched/libsched.a(sched_mergepending.o)
 .debug_aranges
                0x00001ea0       0x20 NuttX/nuttx/sched/libsched.a(sched_getstreams.o)
 .debug_aranges
                0x00001ec0       0x20 NuttX/nuttx/sched/libsched.a(sched_idletask.o)
 .debug_aranges
                0x00001ee0       0x20 NuttX/nuttx/sched/libsched.a(sched_self.o)
 .debug_aranges
                0x00001f00       0x20 NuttX/nuttx/sched/libsched.a(sched_get_stackinfo.o)
 .debug_aranges
                0x00001f20       0x30 NuttX/nuttx/sched/libsched.a(sem_wait.o)
 .debug_aranges
                0x00001f50       0x28 NuttX/nuttx/sched/libsched.a(sem_post.o)
 .debug_aranges
                0x00001f78       0x20 NuttX/nuttx/sched/libsched.a(sem_reset.o)
 .debug_aranges
                0x00001f98       0x28 NuttX/nuttx/sched/libsched.a(sig_kill.o)
 .debug_aranges
                0x00001fc0       0x20 NuttX/nuttx/sched/libsched.a(sig_usleep.o)
 .debug_aranges
                0x00001fe0       0x20 NuttX/nuttx/sched/libsched.a(task_exit.o)
 .debug_aranges
                0x00002000       0x20 NuttX/nuttx/sched/libsched.a(task_getpid.o)
 .debug_aranges
                0x00002020       0x20 NuttX/nuttx/sched/libsched.a(task_terminate.o)
 .debug_aranges
                0x00002040       0x20 NuttX/nuttx/sched/libsched.a(task_gettid.o)
 .debug_aranges
                0x00002060       0x28 NuttX/nuttx/sched/libsched.a(wd_start.o)
 .debug_aranges
                0x00002088       0x28 NuttX/nuttx/sched/libsched.a(sig_nanosleep.o)
 .debug_aranges
                0x000020b0       0x30 NuttX/nuttx/sched/libsched.a(sig_timedwait.o)
 .debug_aranges
                0x000020e0       0x28 NuttX/nuttx/arch/arm/src/libarch.a(stm32_timerisr.o)
 .debug_aranges
                0x00002108       0x20 NuttX/nuttx/arch/arm/src/libarch.a(arm_nputs.o)
 .debug_aranges
                0x00002128       0x20 NuttX/nuttx/mm/libmm.a(umm_realloc.o)
 .debug_aranges
                0x00002148       0x20 NuttX/nuttx/mm/libmm.a(mm_realloc.o)
 .debug_aranges
                0x00002168       0x20 NuttX/nuttx/mm/libmm.a(mm_shrinkchunk.o)
 .debug_aranges
                0x00002188       0x28 NuttX/nuttx/libs/libc/libc.a(lib_umask.o)
 .debug_aranges
                0x000021b0       0x20 NuttX/nuttx/libs/libc/libc.a(sq_addfirst.o)
 .debug_aranges
                0x000021d0       0x20 NuttX/nuttx/libs/libc/libc.a(sq_addafter.o)
 .debug_aranges
                0x000021f0       0x20 NuttX/nuttx/libs/libc/libc.a(clock_ticks2time.o)
 .debug_aranges
                0x00002210       0x20 NuttX/nuttx/libs/libc/libc.a(clock_time2ticks.o)
 .debug_aranges
                0x00002230       0x28 NuttX/nuttx/libs/libc/libc.a(sem_setprotocol.o)
 .debug_aranges
                0x00002258       0x20 NuttX/nuttx/libs/libc/libc.a(lib_asprintf.o)
 .debug_aranges
                0x00002278       0x20 NuttX/nuttx/libs/libc/libc.a(lib_snprintf.o)
 .debug_aranges
                0x00002298       0x20 NuttX/nuttx/libs/libc/libc.a(lib_vasprintf.o)
 .debug_aranges
                0x000022b8       0x20 NuttX/nuttx/libs/libc/libc.a(lib_atol.o)
 .debug_aranges
                0x000022d8       0x20 NuttX/nuttx/libs/libc/libc.a(lib_strtol.o)
 .debug_aranges
                0x000022f8       0x20 NuttX/nuttx/libs/libc/libc.a(lib_strtoul.o)
 .debug_aranges
                0x00002318       0x20 NuttX/nuttx/libs/libc/libc.a(lib_checkbase.o)
 .debug_aranges
                0x00002338       0x30 NuttX/nuttx/libs/libc/libc.a(lib_memoutstream.o)
 .debug_aranges
                0x00002368       0x28 NuttX/nuttx/libs/libc/libc.a(lib_nulloutstream.o)
 .debug_aranges
                0x00002390       0x20 NuttX/nuttx/libs/libc/libc.a(lib_isbasedigit.o)
 .debug_aranges
                0x000023b0       0x20 NuttX/nuttx/libs/libc/libc.a(lib_skipspace.o)
 .debug_aranges
                0x000023d0       0x20 NuttX/nuttx/libs/libc/libc.a(lib_strdup.o)
 .debug_aranges
                0x000023f0       0x20 NuttX/nuttx/libs/libc/libc.a(lib_strtok.o)
 .debug_aranges
                0x00002410       0x20 NuttX/nuttx/libs/libc/libc.a(lib_strtokr.o)
 .debug_aranges
                0x00002430       0x20 NuttX/nuttx/libs/libc/libc.a(lib_strchr.o)
 .debug_aranges
                0x00002450       0x20 NuttX/nuttx/libs/libc/libc.a(lib_tcgetattr.o)
 .debug_aranges
                0x00002470       0x20 NuttX/nuttx/libs/libc/libc.a(lib_tcsetattr.o)
 .debug_aranges
                0x00002490       0x20 NuttX/nuttx/libs/libc/libc.a(task_getinfo.o)
 .debug_aranges
                0x000024b0       0x20 NuttX/nuttx/libs/libc/libc.a(lib_isspace.o)
 .debug_aranges
                0x000024d0       0x20 NuttX/nuttx/libs/libc/libc.a(lib_tcflush.o)
 .debug_aranges
                0x000024f0       0x20 NuttX/nuttx/libs/libc/libc.a(lib_tcdrain.o)
 .debug_aranges
                0x00002510       0x38 NuttX/nuttx/fs/libfs.a(fs_ioctl.o)
 .debug_aranges
                0x00002548       0x20 NuttX/nuttx/fs/libfs.a(fs_inodegetpath.o)
 .debug_aranges
                0x00002568       0x20 NuttX/nuttx/sched/libsched.a(sched_processtimer.o)
 .debug_aranges
                0x00002588       0x20 NuttX/nuttx/libs/libc/libc.a(lib_strcat.o)
 .debug_aranges
                0x000025a8       0xd0 platforms/nuttx/src/bootloader/stm/stm32h7/arch_bootloader/libarch_bootloader.a(main.c.obj)
 .debug_aranges
                0x00002678       0x50 platforms/nuttx/src/bootloader/stm/stm32h7/arch_bootloader/libarch_bootloader.a(systick.c.obj)
 .debug_aranges
                0x000026c8       0x28 platforms/nuttx/src/px4/stm/stm32h7/board_reset/libarch_board_reset.a(board_reset.cpp.obj)
 .debug_aranges
                0x000026f0       0xc0 NuttX/nuttx/arch/arm/src/libarch.a(stm32_flash.o)
 .debug_aranges
                0x000027b0       0x20 NuttX/nuttx/arch/arm/src/libarch.a(arm_systemreset.o)
 .debug_aranges
                0x000027d0       0x40 platforms/nuttx/src/bootloader/common/lib/libbootloader_lib.a(flash_cache.c.obj)
START GROUP
LOAD platforms/nuttx/src/bootloader/common/libbootloader.a
LOAD platforms/nuttx/src/bootloader/common/lib/libbootloader_lib.a
LOAD boards/hkust/nxt-dual/src/libdrivers_board.a
LOAD NuttX/nuttx/boards/libboards.a
LOAD NuttX/nuttx/drivers/libdrivers.a
LOAD NuttX/nuttx/fs/libfs.a
LOAD NuttX/nuttx/sched/libsched.a
LOAD NuttX/nuttx/crypto/libcrypto.a
LOAD NuttX/nuttx/binfmt/libbinfmt.a
LOAD NuttX/nuttx/libs/libxx/libxx.a
LOAD NuttX/apps/libapps.a
LOAD NuttX/nuttx/arch/arm/src/libarch.a
LOAD NuttX/nuttx/mm/libmm.a
LOAD NuttX/nuttx/libs/libc/libc.a
END GROUP
LOAD /opt/homebrew/Cellar/arm-gcc-bin@13/13.2.rel1/bin/../lib/gcc/arm-none-eabi/13.2.1/../../../../arm-none-eabi/lib/thumb/v7e-m+dp/hard/libm.a
LOAD /opt/homebrew/Cellar/arm-gcc-bin@13/13.2.rel1/bin/../lib/gcc/arm-none-eabi/13.2.1/thumb/v7e-m+dp/hard/libgcc.a
LOAD platforms/nuttx/src/bootloader/stm/stm32h7/arch_bootloader/libarch_bootloader.a
LOAD platforms/nuttx/src/px4/stm/stm32h7/board_reset/libarch_board_reset.a
LOAD platforms/nuttx/src/bootloader/common/libbootloader.a
LOAD boards/hkust/nxt-dual/src/libdrivers_board.a
LOAD NuttX/nuttx/arch/arm/src/libarch.a
LOAD platforms/nuttx/src/bootloader/stm/stm32h7/arch_bootloader/libarch_bootloader.a
LOAD platforms/nuttx/src/px4/stm/stm32h7/board_reset/libarch_board_reset.a
LOAD platforms/nuttx/src/px4/stm/stm32h7/hrt/libarch_hrt.a
LOAD platforms/nuttx/src/bootloader/common/lib/libbootloader_lib.a
LOAD NuttX/nuttx/libs/libxx/libxx.a
LOAD /opt/homebrew/Cellar/arm-gcc-bin@13/13.2.rel1/bin/../lib/gcc/arm-none-eabi/13.2.1/../../../../arm-none-eabi/lib/thumb/v7e-m+dp/hard/libm.a
LOAD /opt/homebrew/Cellar/arm-gcc-bin@13/13.2.rel1/bin/../lib/gcc/arm-none-eabi/13.2.1/thumb/v7e-m+dp/hard/libgcc.a
LOAD NuttX/nuttx/drivers/libdrivers.a
LOAD NuttX/nuttx/libs/libc/libc.a
LOAD NuttX/nuttx/drivers/libdrivers.a
LOAD NuttX/nuttx/libs/libc/libc.a
LOAD NuttX/nuttx/sched/libsched.a
OUTPUT(hkust_nxt-dual_bootloader.elf elf32-littlearm)
LOAD linker stubs

.debug_str      0x00000000     0x6a02
 .debug_str     0x00000000     0x6a02 NuttX/nuttx/arch/arm/src/libarch.a(arm_vectors.o)
                                0x21f (size before relaxing)
 .debug_str     0x00006a02       0x83 NuttX/nuttx/arch/arm/src/libarch.a(arm_exception.o)
 .debug_str     0x00006a02      0x2eb NuttX/nuttx/arch/arm/src/libarch.a(stm32_start.o)
 .debug_str     0x00006a02      0x2e3 NuttX/nuttx/arch/arm/src/libarch.a(stm32_rcc.o)
 .debug_str     0x00006a02      0x1fe NuttX/nuttx/arch/arm/src/libarch.a(stm32_lowputc.o)
 .debug_str     0x00006a02      0x3f4 NuttX/nuttx/arch/arm/src/libarch.a(stm32_pwr.o)
 .debug_str     0x00006a02      0x294 NuttX/nuttx/arch/arm/src/libarch.a(arm_modifyreg32.o)
 .debug_str     0x00006a02      0x217 NuttX/nuttx/arch/arm/src/libarch.a(arm_udelay.o)
 .debug_str     0x00006a02      0x269 NuttX/nuttx/arch/arm/src/libarch.a(arm_cache.o)
 .debug_str     0x00006a02      0x22c NuttX/nuttx/arch/arm/src/libarch.a(arm_doirq.o)
 .debug_str     0x00006a02      0x22c NuttX/nuttx/arch/arm/src/libarch.a(arm_fpuconfig.o)
 .debug_str     0x00006a02      0x2ff NuttX/nuttx/arch/arm/src/libarch.a(stm32_irq.o)
 .debug_str     0x00006a02      0x277 NuttX/nuttx/arch/arm/src/libarch.a(arm_hardfault.o)
 .debug_str     0x00006a02      0x24a NuttX/nuttx/arch/arm/src/libarch.a(arm_svcall.o)
 .debug_str     0x00006a02       0x7d NuttX/nuttx/libs/libc/libc.a(arch_memcpy.o)
 .debug_str     0x00006a02      0x207 NuttX/nuttx/libs/libc/libc.a(lib_assert.o)
 .debug_str     0x00006a02      0x1dd NuttX/nuttx/libs/libc/libc.a(lib_abort.o)
 .debug_str     0x00006a02      0x1f0 NuttX/nuttx/libs/libc/libc.a(lib_exit.o)
 .debug_str     0x00006a02      0x25a NuttX/nuttx/libs/libc/libc.a(lib_memset.o)
 .debug_str     0x00006a02      0x32e boards/hkust/nxt-dual/src/libdrivers_board.a(bootloader_main.c.obj)
 .debug_str     0x00006a02      0x41c boards/hkust/nxt-dual/src/libdrivers_board.a(usb.c.obj)
 .debug_str     0x00006a02      0xcad NuttX/nuttx/sched/libsched.a(nx_start.o)
 .debug_str     0x00006a02      0x276 NuttX/nuttx/sched/libsched.a(nx_bringup.o)
 .debug_str     0x00006a02      0x2b4 NuttX/nuttx/sched/libsched.a(irq_attach.o)
 .debug_str     0x00006a02      0x8c4 NuttX/nuttx/sched/libsched.a(irq_dispatch.o)
 .debug_str     0x00006a02      0x26b NuttX/nuttx/sched/libsched.a(irq_unexpectedisr.o)
 .debug_str     0x00006a02      0x899 NuttX/nuttx/sched/libsched.a(sched_lock.o)
 .debug_str     0x00006a02      0x918 NuttX/nuttx/sched/libsched.a(sched_unlock.o)
 .debug_str     0x00006a02      0x8e3 NuttX/nuttx/sched/libsched.a(task_create.o)
 .debug_str     0x00006a02      0xa2c NuttX/nuttx/sched/libsched.a(task_init.o)
 .debug_str     0x00006a02      0xb8d NuttX/nuttx/sched/libsched.a(task_setup.o)
 .debug_str     0x00006a02      0x8a1 NuttX/nuttx/sched/libsched.a(task_activate.o)
 .debug_str     0x00006a02      0x948 NuttX/nuttx/sched/libsched.a(task_start.o)
 .debug_str     0x00006a02      0x87d NuttX/nuttx/sched/libsched.a(exit.o)
 .debug_str     0x00006a02      0x909 NuttX/nuttx/sched/libsched.a(tls_initinfo.o)
 .debug_str     0x00006a02      0x949 NuttX/nuttx/sched/libsched.a(group_create.o)
 .debug_str     0x00006a02      0x941 NuttX/nuttx/sched/libsched.a(group_leave.o)
 .debug_str     0x00006a02      0x863 NuttX/nuttx/sched/libsched.a(group_setupidlefiles.o)
 .debug_str     0x00006a02      0x863 NuttX/nuttx/sched/libsched.a(group_setuptaskfiles.o)
 .debug_str     0x00006a02      0x235 NuttX/nuttx/sched/libsched.a(irq_initialize.o)
 .debug_str     0x00006a02      0x8f8 NuttX/nuttx/sched/libsched.a(sched_releasetcb.o)
 .debug_str     0x00006a02      0x915 NuttX/nuttx/sched/libsched.a(sig_procmask.o)
 .debug_str     0x00006a02      0x95a NuttX/nuttx/sched/libsched.a(sig_unmaskpendingsignal.o)
 .debug_str     0x00006a02      0x8f9 NuttX/nuttx/sched/libsched.a(sig_removependingsignal.o)
 .debug_str     0x00006a02      0x3aa NuttX/nuttx/sched/libsched.a(sig_releasependingsignal.o)
 .debug_str     0x00006a02      0x21f NuttX/nuttx/sched/libsched.a(sig_lowest.o)
 .debug_str     0x00006a02      0x96c NuttX/nuttx/sched/libsched.a(sig_cleanup.o)
 .debug_str     0x00006a02      0xc20 NuttX/nuttx/sched/libsched.a(sig_dispatch.o)
 .debug_str     0x00006a02      0x970 NuttX/nuttx/sched/libsched.a(sig_deliver.o)
 .debug_str     0x00006a02      0xb41 NuttX/nuttx/sched/libsched.a(sig_default.o)
 .debug_str     0x00006a02      0x895 NuttX/nuttx/sched/libsched.a(task_exithook.o)
 .debug_str     0x00006a02      0x86f NuttX/nuttx/sched/libsched.a(task_recover.o)
 .debug_str     0x00006a02      0x712 NuttX/nuttx/sched/libsched.a(task_initinfo.o)
 .debug_str     0x00006a02      0x711 NuttX/nuttx/sched/libsched.a(task_uninitinfo.o)
 .debug_str     0x00006a02      0x83a NuttX/nuttx/sched/libsched.a(wd_recover.o)
 .debug_str     0x00006a02      0x85c NuttX/nuttx/sched/libsched.a(group_setupstreams.o)
 .debug_str     0x00006a02      0x8af NuttX/nuttx/sched/libsched.a(sched_gettcb.o)
 .debug_str     0x00006a02      0x989 NuttX/nuttx/sched/libsched.a(sched_suspend.o)
 .debug_str     0x00006a02      0x959 NuttX/nuttx/sched/libsched.a(sched_continue.o)
 .debug_str     0x00006a02      0x22d NuttX/nuttx/sched/libsched.a(sem_destroy.o)
 .debug_str     0x00006a02      0x947 NuttX/nuttx/sched/libsched.a(sem_recover.o)
 .debug_str     0x00006a02      0x95d NuttX/nuttx/sched/libsched.a(sem_waitirq.o)
 .debug_str     0x00006a02      0x48a NuttX/nuttx/sched/libsched.a(sig_initialize.o)
 .debug_str     0x00006a02      0xa36 NuttX/nuttx/sched/libsched.a(sig_action.o)
 .debug_str     0x00006a02      0x924 NuttX/nuttx/sched/libsched.a(sig_pending.o)
 .debug_str     0x00006a02      0x744 NuttX/nuttx/sched/libsched.a(sig_findaction.o)
 .debug_str     0x00006a02      0x3f9 NuttX/nuttx/sched/libsched.a(sig_allocpendingsigaction.o)
 .debug_str     0x00006a02      0x3c7 NuttX/nuttx/sched/libsched.a(sig_releasependingsigaction.o)
 .debug_str     0x00006a02      0x32d NuttX/nuttx/sched/libsched.a(wd_cancel.o)
 .debug_str     0x00006a02      0x980 NuttX/nuttx/sched/libsched.a(sched_addblocked.o)
 .debug_str     0x00006a02      0x961 NuttX/nuttx/sched/libsched.a(sched_removeblocked.o)
 .debug_str     0x00006a02      0x215 NuttX/nuttx/sched/libsched.a(wd_initialize.o)
 .debug_str     0x00006a02      0x87e NuttX/nuttx/sched/libsched.a(sched_addprioritized.o)
 .debug_str     0x00006a02      0x1ee NuttX/nuttx/binfmt/libbinfmt.a(binfmt_initialize.o)
 .debug_str     0x00006a02      0x33a NuttX/apps/libapps.a(cdcacm_main.c.Users.carbs.Desktop.PX4-Autopilot.platforms.nuttx.NuttX.apps.system.cdcacm.o)
 .debug_str     0x00006a02      0x237 NuttX/nuttx/arch/arm/src/libarch.a(stm32_allocateheap.o)
 .debug_str     0x00006a02      0x331 NuttX/nuttx/arch/arm/src/libarch.a(stm32_gpio.o)
 .debug_str     0x00006a02      0x9af NuttX/nuttx/arch/arm/src/libarch.a(arm_assert.o)
 .debug_str     0x00006a02      0x9c5 NuttX/nuttx/arch/arm/src/libarch.a(arm_blocktask.o)
 .debug_str     0x00006a02      0x934 NuttX/nuttx/arch/arm/src/libarch.a(arm_createstack.o)
 .debug_str     0x00006a02      0x8d6 NuttX/nuttx/arch/arm/src/libarch.a(arm_exit.o)
 .debug_str     0x00006a02      0x239 NuttX/nuttx/arch/arm/src/libarch.a(arm_fullcontextrestore.o)
 .debug_str     0x00006a02      0x274 NuttX/nuttx/arch/arm/src/libarch.a(arm_initialize.o)
 .debug_str     0x00006a02      0x8c6 NuttX/nuttx/arch/arm/src/libarch.a(arm_releasepending.o)
 .debug_str     0x00006a02      0x855 NuttX/nuttx/arch/arm/src/libarch.a(arm_releasestack.o)
 .debug_str     0x00006a02      0x864 NuttX/nuttx/arch/arm/src/libarch.a(arm_stackframe.o)
 .debug_str     0x00006a02      0x243 NuttX/nuttx/arch/arm/src/libarch.a(arm_switchcontext.o)
 .debug_str     0x00006a02      0x98d NuttX/nuttx/arch/arm/src/libarch.a(arm_unblocktask.o)
 .debug_str     0x00006a02      0x90c NuttX/nuttx/arch/arm/src/libarch.a(arm_usestack.o)
 .debug_str     0x00006a02      0x97a NuttX/nuttx/arch/arm/src/libarch.a(arm_checkstack.o)
 .debug_str     0x00006a02      0x1e8 NuttX/nuttx/arch/arm/src/libarch.a(arm_idle.o)
 .debug_str     0x00006a02      0x87e NuttX/nuttx/arch/arm/src/libarch.a(arm_initialstate.o)
 .debug_str     0x00006a02      0x8cd NuttX/nuttx/arch/arm/src/libarch.a(arm_schedulesigaction.o)
 .debug_str     0x00006a02      0x8fd NuttX/nuttx/arch/arm/src/libarch.a(arm_sigdeliver.o)
 .debug_str     0x00006a02      0x972 NuttX/nuttx/arch/arm/src/libarch.a(stm32_serial.o)
 .debug_str     0x00006a02      0xcb3 NuttX/nuttx/arch/arm/src/libarch.a(stm32_otgdev.o)
 .debug_str     0x00006a02      0x1f9 NuttX/nuttx/arch/arm/src/libarch.a(arm_mdelay.o)
 .debug_str     0x00006a02      0x232 NuttX/nuttx/mm/libmm.a(umm_initialize.o)
 .debug_str     0x00006a02      0x1f8 NuttX/nuttx/mm/libmm.a(umm_free.o)
 .debug_str     0x00006a02      0x212 NuttX/nuttx/mm/libmm.a(umm_malloc.o)
 .debug_str     0x00006a02      0x212 NuttX/nuttx/mm/libmm.a(umm_zalloc.o)
 .debug_str     0x00006a02      0x3a7 NuttX/nuttx/mm/libmm.a(mm_initialize.o)
 .debug_str     0x00006a02      0x379 NuttX/nuttx/mm/libmm.a(mm_sem.o)
 .debug_str     0x00006a02      0x2fa NuttX/nuttx/mm/libmm.a(mm_addfreechunk.o)
 .debug_str     0x00006a02      0x1fa NuttX/nuttx/mm/libmm.a(mm_size2ndx.o)
 .debug_str     0x00006a02      0x39b NuttX/nuttx/mm/libmm.a(mm_free.o)
 .debug_str     0x00006a02      0x3cb NuttX/nuttx/mm/libmm.a(mm_malloc.o)
 .debug_str     0x00006a02      0x227 NuttX/nuttx/mm/libmm.a(mm_zalloc.o)
 .debug_str     0x00006a02      0x1ee NuttX/nuttx/mm/libmm.a(umm_globals.o)
 .debug_str     0x00006a02      0x319 NuttX/nuttx/libs/libc/libc.a(lib_errno.o)
 .debug_str     0x00006a02      0x21e NuttX/nuttx/libs/libc/libc.a(sq_addlast.o)
 .debug_str     0x00006a02      0x227 NuttX/nuttx/libs/libc/libc.a(sq_rem.o)
 .debug_str     0x00006a02      0x21b NuttX/nuttx/libs/libc/libc.a(sq_remfirst.o)
 .debug_str     0x00006a02      0x220 NuttX/nuttx/libs/libc/libc.a(sq_remafter.o)
 .debug_str     0x00006a02      0x224 NuttX/nuttx/libs/libc/libc.a(dq_addlast.o)
 .debug_str     0x00006a02      0x226 NuttX/nuttx/libs/libc/libc.a(dq_addfirst.o)
 .debug_str     0x00006a02      0x226 NuttX/nuttx/libs/libc/libc.a(dq_rem.o)
 .debug_str     0x00006a02      0x220 NuttX/nuttx/libs/libc/libc.a(task_startup.o)
 .debug_str     0x00006a02      0x224 NuttX/nuttx/libs/libc/libc.a(sem_init.o)
 .debug_str     0x00006a02      0x228 NuttX/nuttx/libs/libc/libc.a(sem_getvalue.o)
 .debug_str     0x00006a02      0x214 NuttX/nuttx/libs/libc/libc.a(sig_addset.o)
 .debug_str     0x00006a02      0x214 NuttX/nuttx/libs/libc/libc.a(sig_delset.o)
 .debug_str     0x00006a02      0x1fd NuttX/nuttx/libs/libc/libc.a(sig_emptyset.o)
 .debug_str     0x00006a02      0x21a NuttX/nuttx/libs/libc/libc.a(sig_ismember.o)
 .debug_str     0x00006a02      0x356 NuttX/nuttx/libs/libc/libc.a(lib_printf.o)
 .debug_str     0x00006a02      0x37c NuttX/nuttx/libs/libc/libc.a(lib_libflushall.o)
 .debug_str     0x00006a02      0x379 NuttX/nuttx/libs/libc/libc.a(lib_libfflush.o)
 .debug_str     0x00006a02      0x3ce NuttX/nuttx/libs/libc/libc.a(lib_vfprintf.o)
 .debug_str     0x00006a02      0x71f NuttX/nuttx/libs/libc/libc.a(lib_libstream.o)
 .debug_str     0x00006a02      0x3ae NuttX/nuttx/libs/libc/libc.a(lib_libfilesem.o)
 .debug_str     0x00006a02      0x3d5 NuttX/nuttx/libs/libc/libc.a(lib_stdoutstream.o)
 .debug_str     0x00006a02      0x1e5 NuttX/nuttx/libs/libc/libc.a(lib_strcpy.o)
 .debug_str     0x00006a02      0x202 NuttX/nuttx/libs/libc/libc.a(lib_strlcpy.o)
 .debug_str     0x00006a02      0x1ef NuttX/nuttx/libs/libc/libc.a(lib_strlen.o)
 .debug_str     0x00006a02      0x20e NuttX/nuttx/libs/libc/libc.a(lib_strncpy.o)
 .debug_str     0x00006a02      0x26e NuttX/nuttx/libs/libc/libc.a(lib_cfspeed.o)
 .debug_str     0x00006a02      0x36d NuttX/nuttx/libs/libc/libc.a(tls_getinfo.o)
 .debug_str     0x00006a02      0x24d NuttX/nuttx/libs/libc/libc.a(lib_cxx_initialize.o)
 .debug_str     0x00006a02      0x393 NuttX/nuttx/libs/libc/libc.a(lib_libvsprintf.o)
 .debug_str     0x00006a02      0x190 NuttX/nuttx/libs/libc/libc.a(lib_ultoa_invert.o)
 .debug_str     0x00006a02      0x2d1 NuttX/nuttx/libs/libc/libc.a(lib_dtoa_engine.o)
 .debug_str     0x00006a02      0x205 NuttX/nuttx/libs/libc/libc.a(lib_dtoa_data.o)
 .debug_str     0x00006a02      0x325 NuttX/nuttx/libs/libc/libc.a(lib_fputc.o)
 .debug_str     0x00006a02      0x23c NuttX/nuttx/libs/libc/libc.a(lib_libnoflush.o)
 .debug_str     0x00006a02      0x1f8 NuttX/nuttx/libs/libc/libc.a(lib_strnlen.o)
 .debug_str     0x00006a02      0x3c7 NuttX/nuttx/libs/libc/libc.a(lib_libfwrite.o)
 .debug_str     0x00006a02      0x351 NuttX/nuttx/libs/libc/libc.a(lib_rdflush.o)
 .debug_str     0x00006a02      0x31b NuttX/nuttx/libs/libc/libc.a(lib_fseek.o)
 .debug_str     0x00006a02      0x33a NuttX/nuttx/libs/libc/libc.a(lib_fseeko.o)
 .debug_str     0x00006a02      0x319 NuttX/nuttx/libs/libc/libc.a(lib_wrflush.o)
 .debug_str     0x00006a02      0x6ac platforms/nuttx/src/bootloader/common/libbootloader.a(bl.c.obj)
 .debug_str     0x00006a02      0x32a platforms/nuttx/src/bootloader/common/lib/libbootloader_lib.a(cdcacm.c.obj)
 .debug_str     0x00006a02      0x3b8 platforms/nuttx/src/bootloader/common/lib/libbootloader_lib.a(uart.c.obj)
 .debug_str     0x00006a02      0x359 NuttX/nuttx/boards/libboards.a(boardctl.o)
 .debug_str     0x00006a02      0x21a NuttX/nuttx/drivers/libdrivers.a(drivers_initialize.o)
 .debug_str     0x00006a02      0x512 NuttX/nuttx/drivers/libdrivers.a(dev_null.o)
 .debug_str     0x00006a02      0x8f0 NuttX/nuttx/drivers/libdrivers.a(serial.o)
 .debug_str     0x00006a02      0x63e NuttX/nuttx/drivers/libdrivers.a(serial_io.o)
 .debug_str     0x00006a02      0x2b7 NuttX/nuttx/drivers/libdrivers.a(syslog_flush.o)
 .debug_str     0x00006a02      0x1fc NuttX/nuttx/drivers/libdrivers.a(syslog_initialize.o)
 .debug_str     0x00006a02      0xf4c NuttX/nuttx/drivers/libdrivers.a(cdcacm.o)
 .debug_str     0x00006a02      0x459 NuttX/nuttx/drivers/libdrivers.a(cdcacm_desc.o)
 .debug_str     0x00006a02      0x349 NuttX/nuttx/drivers/libdrivers.a(syslog_channel.o)
 .debug_str     0x00006a02      0x1f3 NuttX/nuttx/fs/libfs.a(fs_initialize.o)
 .debug_str     0x00006a02      0x5e1 NuttX/nuttx/fs/libfs.a(fs_files.o)
 .debug_str     0x00006a02      0x2f6 NuttX/nuttx/fs/libfs.a(fs_inode.o)
 .debug_str     0x00006a02      0x571 NuttX/nuttx/fs/libfs.a(fs_inodereserve.o)
 .debug_str     0x00006a02      0x52d NuttX/nuttx/fs/libfs.a(fs_inodesearch.o)
 .debug_str     0x00006a02      0x482 NuttX/nuttx/fs/libfs.a(fs_close.o)
 .debug_str     0x00006a02      0x4aa NuttX/nuttx/fs/libfs.a(fs_lseek.o)
 .debug_str     0x00006a02      0x63d NuttX/nuttx/fs/libfs.a(fs_open.o)
 .debug_str     0x00006a02      0x495 NuttX/nuttx/fs/libfs.a(fs_read.o)
 .debug_str     0x00006a02      0x498 NuttX/nuttx/fs/libfs.a(fs_write.o)
 .debug_str     0x00006a02      0x5ba NuttX/nuttx/fs/libfs.a(fs_dir.o)
 .debug_str     0x00006a02      0x8c0 NuttX/nuttx/fs/libfs.a(fs_fdopen.o)
 .debug_str     0x00006a02      0x4c2 NuttX/nuttx/fs/libfs.a(fs_registerdriver.o)
 .debug_str     0x00006a02      0x221 NuttX/nuttx/fs/libfs.a(fs_unregisterdriver.o)
 .debug_str     0x00006a02      0x494 NuttX/nuttx/fs/libfs.a(fs_inodeaddref.o)
 .debug_str     0x00006a02      0x4d9 NuttX/nuttx/fs/libfs.a(fs_inodefind.o)
 .debug_str     0x00006a02      0x4a6 NuttX/nuttx/fs/libfs.a(fs_inoderelease.o)
 .debug_str     0x00006a02      0x4e4 NuttX/nuttx/fs/libfs.a(fs_inoderemove.o)
 .debug_str     0x00006a02      0x478 NuttX/nuttx/fs/libfs.a(fs_inodefree.o)
 .debug_str     0x00006a02      0x28d NuttX/nuttx/sched/libsched.a(clock_initialize.o)
 .debug_str     0x00006a02      0x87a NuttX/nuttx/sched/libsched.a(sched_getfiles.o)
 .debug_str     0x00006a02      0x965 NuttX/nuttx/sched/libsched.a(sched_addreadytorun.o)
 .debug_str     0x00006a02      0x956 NuttX/nuttx/sched/libsched.a(sched_removereadytorun.o)
 .debug_str     0x00006a02      0x957 NuttX/nuttx/sched/libsched.a(sched_mergepending.o)
 .debug_str     0x00006a02      0x87e NuttX/nuttx/sched/libsched.a(sched_getstreams.o)
 .debug_str     0x00006a02      0x8ef NuttX/nuttx/sched/libsched.a(sched_idletask.o)
 .debug_str     0x00006a02      0x86c NuttX/nuttx/sched/libsched.a(sched_self.o)
 .debug_str     0x00006a02      0x8b4 NuttX/nuttx/sched/libsched.a(sched_get_stackinfo.o)
 .debug_str     0x00006a02      0xa55 NuttX/nuttx/sched/libsched.a(sem_wait.o)
 .debug_str     0x00006a02      0x904 NuttX/nuttx/sched/libsched.a(sem_post.o)
 .debug_str     0x00006a02      0x2c1 NuttX/nuttx/sched/libsched.a(sem_reset.o)
 .debug_str     0x00006a02      0x290 NuttX/nuttx/sched/libsched.a(sig_kill.o)
 .debug_str     0x00006a02      0x22d NuttX/nuttx/sched/libsched.a(sig_usleep.o)
 .debug_str     0x00006a02      0x995 NuttX/nuttx/sched/libsched.a(task_exit.o)
 .debug_str     0x00006a02      0x920 NuttX/nuttx/sched/libsched.a(task_getpid.o)
 .debug_str     0x00006a02      0x9ff NuttX/nuttx/sched/libsched.a(task_terminate.o)
 .debug_str     0x00006a02      0x920 NuttX/nuttx/sched/libsched.a(task_gettid.o)
 .debug_str     0x00006a02      0x371 NuttX/nuttx/sched/libsched.a(wd_start.o)
 .debug_str     0x00006a02      0x3cf NuttX/nuttx/sched/libsched.a(sig_nanosleep.o)
 .debug_str     0x00006a02      0xaed NuttX/nuttx/sched/libsched.a(sig_timedwait.o)
 .debug_str     0x00006a02      0x25c NuttX/nuttx/arch/arm/src/libarch.a(stm32_timerisr.o)
 .debug_str     0x00006a02      0x201 NuttX/nuttx/arch/arm/src/libarch.a(arm_nputs.o)
 .debug_str     0x00006a02      0x21c NuttX/nuttx/mm/libmm.a(umm_realloc.o)
 .debug_str     0x00006a02      0x3ad NuttX/nuttx/mm/libmm.a(mm_realloc.o)
 .debug_str     0x00006a02      0x309 NuttX/nuttx/mm/libmm.a(mm_shrinkchunk.o)
 .debug_str     0x00006a02      0x2e9 NuttX/nuttx/libs/libc/libc.a(lib_umask.o)
 .debug_str     0x00006a02      0x220 NuttX/nuttx/libs/libc/libc.a(sq_addfirst.o)
 .debug_str     0x00006a02      0x230 NuttX/nuttx/libs/libc/libc.a(sq_addafter.o)
 .debug_str     0x00006a02      0x24d NuttX/nuttx/libs/libc/libc.a(clock_ticks2time.o)
 .debug_str     0x00006a02      0x26c NuttX/nuttx/libs/libc/libc.a(clock_time2ticks.o)
 .debug_str     0x00006a02      0x235 NuttX/nuttx/libs/libc/libc.a(sem_setprotocol.o)
 .debug_str     0x00006a02      0x219 NuttX/nuttx/libs/libc/libc.a(lib_asprintf.o)
 .debug_str     0x00006a02      0x2e6 NuttX/nuttx/libs/libc/libc.a(lib_snprintf.o)
 .debug_str     0x00006a02      0x2e9 NuttX/nuttx/libs/libc/libc.a(lib_vasprintf.o)
 .debug_str     0x00006a02      0x1dc NuttX/nuttx/libs/libc/libc.a(lib_atol.o)
 .debug_str     0x00006a02      0x22d NuttX/nuttx/libs/libc/libc.a(lib_strtol.o)
 .debug_str     0x00006a02      0x24f NuttX/nuttx/libs/libc/libc.a(lib_strtoul.o)
 .debug_str     0x00006a02      0x20a NuttX/nuttx/libs/libc/libc.a(lib_checkbase.o)
 .debug_str     0x00006a02      0x2db NuttX/nuttx/libs/libc/libc.a(lib_memoutstream.o)
 .debug_str     0x00006a02      0x26c NuttX/nuttx/libs/libc/libc.a(lib_nulloutstream.o)
 .debug_str     0x00006a02      0x1ff NuttX/nuttx/libs/libc/libc.a(lib_isbasedigit.o)
 .debug_str     0x00006a02      0x1fd NuttX/nuttx/libs/libc/libc.a(lib_skipspace.o)
 .debug_str     0x00006a02      0x20f NuttX/nuttx/libs/libc/libc.a(lib_strdup.o)
 .debug_str     0x00006a02      0x1f9 NuttX/nuttx/libs/libc/libc.a(lib_strtok.o)
 .debug_str     0x00006a02      0x204 NuttX/nuttx/libs/libc/libc.a(lib_strtokr.o)
 .debug_str     0x00006a02      0x1e0 NuttX/nuttx/libs/libc/libc.a(lib_strchr.o)
 .debug_str     0x00006a02      0x247 NuttX/nuttx/libs/libc/libc.a(lib_tcgetattr.o)
 .debug_str     0x00006a02      0x25f NuttX/nuttx/libs/libc/libc.a(lib_tcsetattr.o)
 .debug_str     0x00006a02      0x315 NuttX/nuttx/libs/libc/libc.a(task_getinfo.o)
 .debug_str     0x00006a02      0x170 NuttX/nuttx/libs/libc/libc.a(lib_isspace.o)
 .debug_str     0x00006a02      0x1dd NuttX/nuttx/libs/libc/libc.a(lib_tcflush.o)
 .debug_str     0x00006a02      0x1dd NuttX/nuttx/libs/libc/libc.a(lib_tcdrain.o)
 .debug_str     0x00006a02      0x4ee NuttX/nuttx/fs/libfs.a(fs_ioctl.o)
 .debug_str     0x00006a02      0x48b NuttX/nuttx/fs/libfs.a(fs_inodegetpath.o)
 .debug_str     0x00006a02      0x21d NuttX/nuttx/sched/libsched.a(sched_processtimer.o)
 .debug_str     0x00006a02      0x1fb NuttX/nuttx/libs/libc/libc.a(lib_strcat.o)
 .debug_str     0x00006a02      0x7bd platforms/nuttx/src/bootloader/stm/stm32h7/arch_bootloader/libarch_bootloader.a(main.c.obj)
 .debug_str     0x00006a02      0x381 platforms/nuttx/src/bootloader/stm/stm32h7/arch_bootloader/libarch_bootloader.a(systick.c.obj)
 .debug_str     0x00006a02      0x58b platforms/nuttx/src/px4/stm/stm32h7/board_reset/libarch_board_reset.a(board_reset.cpp.obj)
 .debug_str     0x00006a02      0x680 NuttX/nuttx/arch/arm/src/libarch.a(stm32_flash.o)
 .debug_str     0x00006a02      0x211 NuttX/nuttx/arch/arm/src/libarch.a(arm_systemreset.o)
 .debug_str     0x00006a02      0x373 platforms/nuttx/src/bootloader/common/lib/libbootloader_lib.a(flash_cache.c.obj)

.debug_line_str
                0x00000000      0x1b1
 .debug_line_str
                0x00000000      0x1b1 NuttX/nuttx/arch/arm/src/libarch.a(arm_exception.o)
                                 0x64 (size before relaxing)
 .debug_line_str
                0x000001b1       0x6f NuttX/nuttx/libs/libc/libc.a(arch_memcpy.o)
 .debug_line_str
                0x000001b1       0xd2 /opt/homebrew/Cellar/arm-gcc-bin@13/13.2.rel1/bin/../lib/gcc/arm-none-eabi/13.2.1/thumb/v7e-m+dp/hard/libgcc.a(_aeabi_ldivmod.o)
 .debug_line_str
                0x000001b1       0xd2 /opt/homebrew/Cellar/arm-gcc-bin@13/13.2.rel1/bin/../lib/gcc/arm-none-eabi/13.2.1/thumb/v7e-m+dp/hard/libgcc.a(_aeabi_uldivmod.o)
 .debug_line_str
                0x000001b1       0xd6 /opt/homebrew/Cellar/arm-gcc-bin@13/13.2.rel1/bin/../lib/gcc/arm-none-eabi/13.2.1/thumb/v7e-m+dp/hard/libgcc.a(_dvmd_tls.o)

.debug_loclists
                0x00000000    0x13064
 .debug_loclists
                0x00000000       0x17 NuttX/nuttx/arch/arm/src/libarch.a(stm32_start.o)
 .debug_loclists
                0x00000017      0x1c9 NuttX/nuttx/arch/arm/src/libarch.a(stm32_rcc.o)
 .debug_loclists
                0x000001e0      0x4f4 NuttX/nuttx/arch/arm/src/libarch.a(stm32_pwr.o)
 .debug_loclists
                0x000006d4       0xaa NuttX/nuttx/arch/arm/src/libarch.a(arm_modifyreg32.o)
 .debug_loclists
                0x0000077e       0x20 NuttX/nuttx/arch/arm/src/libarch.a(arm_udelay.o)
 .debug_loclists
                0x0000079e       0x3d NuttX/nuttx/arch/arm/src/libarch.a(arm_cache.o)
 .debug_loclists
                0x000007db       0x5a NuttX/nuttx/arch/arm/src/libarch.a(arm_doirq.o)
 .debug_loclists
                0x00000835       0x55 NuttX/nuttx/arch/arm/src/libarch.a(arm_fpuconfig.o)
 .debug_loclists
                0x0000088a      0x2af NuttX/nuttx/arch/arm/src/libarch.a(stm32_irq.o)
 .debug_loclists
                0x00000b39       0x70 NuttX/nuttx/arch/arm/src/libarch.a(arm_hardfault.o)
 .debug_loclists
                0x00000ba9       0xc2 NuttX/nuttx/arch/arm/src/libarch.a(arm_svcall.o)
 .debug_loclists
                0x00000c6b       0x46 NuttX/nuttx/libs/libc/libc.a(lib_assert.o)
 .debug_loclists
                0x00000cb1       0x46 NuttX/nuttx/libs/libc/libc.a(lib_exit.o)
 .debug_loclists
                0x00000cf7      0x136 NuttX/nuttx/libs/libc/libc.a(lib_memset.o)
 .debug_loclists
                0x00000e2d       0x29 boards/hkust/nxt-dual/src/libdrivers_board.a(bootloader_main.c.obj)
 .debug_loclists
                0x00000e56       0x55 NuttX/nuttx/sched/libsched.a(nx_start.o)
 .debug_loclists
                0x00000eab       0x46 NuttX/nuttx/sched/libsched.a(nx_bringup.o)
 .debug_loclists
                0x00000ef1       0xe9 NuttX/nuttx/sched/libsched.a(irq_attach.o)
 .debug_loclists
                0x00000fda       0xa0 NuttX/nuttx/sched/libsched.a(irq_dispatch.o)
 .debug_loclists
                0x0000107a       0x70 NuttX/nuttx/sched/libsched.a(irq_unexpectedisr.o)
 .debug_loclists
                0x000010ea       0x17 NuttX/nuttx/sched/libsched.a(sched_lock.o)
 .debug_loclists
                0x00001101       0x7b NuttX/nuttx/sched/libsched.a(sched_unlock.o)
 .debug_loclists
                0x0000117c      0x349 NuttX/nuttx/sched/libsched.a(task_create.o)
 .debug_loclists
                0x000014c5      0x1cb NuttX/nuttx/sched/libsched.a(task_init.o)
 .debug_loclists
                0x00001690      0x560 NuttX/nuttx/sched/libsched.a(task_setup.o)
 .debug_loclists
                0x00001bf0       0x72 NuttX/nuttx/sched/libsched.a(task_activate.o)
 .debug_loclists
                0x00001c62       0x5e NuttX/nuttx/sched/libsched.a(task_start.o)
 .debug_loclists
                0x00001cc0       0x42 NuttX/nuttx/sched/libsched.a(exit.o)
 .debug_loclists
                0x00001d02       0x34 NuttX/nuttx/sched/libsched.a(tls_initinfo.o)
 .debug_loclists
                0x00001d36       0x8c NuttX/nuttx/sched/libsched.a(group_create.o)
 .debug_loclists
                0x00001dc2       0x44 NuttX/nuttx/sched/libsched.a(group_leave.o)
 .debug_loclists
                0x00001e06       0x35 NuttX/nuttx/sched/libsched.a(group_setupidlefiles.o)
 .debug_loclists
                0x00001e3b       0x35 NuttX/nuttx/sched/libsched.a(group_setuptaskfiles.o)
 .debug_loclists
                0x00001e70       0x21 NuttX/nuttx/sched/libsched.a(irq_initialize.o)
 .debug_loclists
                0x00001e91       0xd0 NuttX/nuttx/sched/libsched.a(sched_releasetcb.o)
 .debug_loclists
                0x00001f61      0x169 NuttX/nuttx/sched/libsched.a(sig_procmask.o)
 .debug_loclists
                0x000020ca       0x46 NuttX/nuttx/sched/libsched.a(sig_unmaskpendingsignal.o)
 .debug_loclists
                0x00002110       0xf2 NuttX/nuttx/sched/libsched.a(sig_removependingsignal.o)
 .debug_loclists
                0x00002202       0xaa NuttX/nuttx/sched/libsched.a(sig_releasependingsignal.o)
 .debug_loclists
                0x000022ac       0x35 NuttX/nuttx/sched/libsched.a(sig_lowest.o)
 .debug_loclists
                0x000022e1       0x90 NuttX/nuttx/sched/libsched.a(sig_cleanup.o)
 .debug_loclists
                0x00002371      0x4a0 NuttX/nuttx/sched/libsched.a(sig_dispatch.o)
 .debug_loclists
                0x00002811      0x105 NuttX/nuttx/sched/libsched.a(sig_deliver.o)
 .debug_loclists
                0x00002916      0x2a0 NuttX/nuttx/sched/libsched.a(sig_default.o)
 .debug_loclists
                0x00002bb6       0x7a NuttX/nuttx/sched/libsched.a(task_exithook.o)
 .debug_loclists
                0x00002c30       0x37 NuttX/nuttx/sched/libsched.a(task_recover.o)
 .debug_loclists
                0x00002c67       0x42 NuttX/nuttx/sched/libsched.a(task_initinfo.o)
 .debug_loclists
                0x00002ca9       0x3d NuttX/nuttx/sched/libsched.a(task_uninitinfo.o)
 .debug_loclists
                0x00002ce6       0x32 NuttX/nuttx/sched/libsched.a(wd_recover.o)
 .debug_loclists
                0x00002d18       0x27 NuttX/nuttx/sched/libsched.a(group_setupstreams.o)
 .debug_loclists
                0x00002d3f       0xc2 NuttX/nuttx/sched/libsched.a(sched_gettcb.o)
 .debug_loclists
                0x00002e01       0x77 NuttX/nuttx/sched/libsched.a(sched_suspend.o)
 .debug_loclists
                0x00002e78       0x72 NuttX/nuttx/sched/libsched.a(sched_continue.o)
 .debug_loclists
                0x00002eea       0x7d NuttX/nuttx/sched/libsched.a(sem_destroy.o)
 .debug_loclists
                0x00002f67       0x60 NuttX/nuttx/sched/libsched.a(sem_recover.o)
 .debug_loclists
                0x00002fc7       0x9a NuttX/nuttx/sched/libsched.a(sem_waitirq.o)
 .debug_loclists
                0x00003061      0x10a NuttX/nuttx/sched/libsched.a(sig_initialize.o)
 .debug_loclists
                0x0000316b      0x386 NuttX/nuttx/sched/libsched.a(sig_action.o)
 .debug_loclists
                0x000034f1       0xd0 NuttX/nuttx/sched/libsched.a(sig_pending.o)
 .debug_loclists
                0x000035c1       0x59 NuttX/nuttx/sched/libsched.a(sig_findaction.o)
 .debug_loclists
                0x0000361a       0x60 NuttX/nuttx/sched/libsched.a(sig_allocpendingsigaction.o)
 .debug_loclists
                0x0000367a       0xaa NuttX/nuttx/sched/libsched.a(sig_releasependingsigaction.o)
 .debug_loclists
                0x00003724       0xdc NuttX/nuttx/sched/libsched.a(wd_cancel.o)
 .debug_loclists
                0x00003800       0x66 NuttX/nuttx/sched/libsched.a(sched_addblocked.o)
 .debug_loclists
                0x00003866       0x3c NuttX/nuttx/sched/libsched.a(sched_removeblocked.o)
 .debug_loclists
                0x000038a2       0xcf NuttX/nuttx/sched/libsched.a(sched_addprioritized.o)
 .debug_loclists
                0x00003971      0x101 NuttX/apps/libapps.a(cdcacm_main.c.Users.carbs.Desktop.PX4-Autopilot.platforms.nuttx.NuttX.apps.system.cdcacm.o)
 .debug_loclists
                0x00003a72      0x449 NuttX/nuttx/arch/arm/src/libarch.a(stm32_gpio.o)
 .debug_loclists
                0x00003ebb       0x53 NuttX/nuttx/arch/arm/src/libarch.a(arm_assert.o)
 .debug_loclists
                0x00003f0e       0x98 NuttX/nuttx/arch/arm/src/libarch.a(arm_blocktask.o)
 .debug_loclists
                0x00003fa6       0xb0 NuttX/nuttx/arch/arm/src/libarch.a(arm_createstack.o)
 .debug_loclists
                0x00004056       0x41 NuttX/nuttx/arch/arm/src/libarch.a(arm_exit.o)
 .debug_loclists
                0x00004097       0x40 NuttX/nuttx/arch/arm/src/libarch.a(arm_fullcontextrestore.o)
 .debug_loclists
                0x000040d7       0x4f NuttX/nuttx/arch/arm/src/libarch.a(arm_initialize.o)
 .debug_loclists
                0x00004126       0x3c NuttX/nuttx/arch/arm/src/libarch.a(arm_releasepending.o)
 .debug_loclists
                0x00004162       0x3d NuttX/nuttx/arch/arm/src/libarch.a(arm_releasestack.o)
 .debug_loclists
                0x0000419f       0x46 NuttX/nuttx/arch/arm/src/libarch.a(arm_stackframe.o)
 .debug_loclists
                0x000041e5       0x68 NuttX/nuttx/arch/arm/src/libarch.a(arm_switchcontext.o)
 .debug_loclists
                0x0000424d       0x60 NuttX/nuttx/arch/arm/src/libarch.a(arm_unblocktask.o)
 .debug_loclists
                0x000042ad       0x58 NuttX/nuttx/arch/arm/src/libarch.a(arm_usestack.o)
 .debug_loclists
                0x00004305      0x236 NuttX/nuttx/arch/arm/src/libarch.a(arm_checkstack.o)
 .debug_loclists
                0x0000453b       0xa0 NuttX/nuttx/arch/arm/src/libarch.a(arm_initialstate.o)
 .debug_loclists
                0x000045db       0xa9 NuttX/nuttx/arch/arm/src/libarch.a(arm_schedulesigaction.o)
 .debug_loclists
                0x00004684       0x3c NuttX/nuttx/arch/arm/src/libarch.a(arm_sigdeliver.o)
 .debug_loclists
                0x000046c0      0xde2 NuttX/nuttx/arch/arm/src/libarch.a(stm32_serial.o)
 .debug_loclists
                0x000054a2     0x2446 NuttX/nuttx/arch/arm/src/libarch.a(stm32_otgdev.o)
 .debug_loclists
                0x000078e8       0x54 NuttX/nuttx/mm/libmm.a(umm_initialize.o)
 .debug_loclists
                0x0000793c       0x30 NuttX/nuttx/mm/libmm.a(umm_free.o)
 .debug_loclists
                0x0000796c       0x30 NuttX/nuttx/mm/libmm.a(umm_malloc.o)
 .debug_loclists
                0x0000799c       0x30 NuttX/nuttx/mm/libmm.a(umm_zalloc.o)
 .debug_loclists
                0x000079cc      0x273 NuttX/nuttx/mm/libmm.a(mm_initialize.o)
 .debug_loclists
                0x00007c3f       0xab NuttX/nuttx/mm/libmm.a(mm_sem.o)
 .debug_loclists
                0x00007cea       0x86 NuttX/nuttx/mm/libmm.a(mm_addfreechunk.o)
 .debug_loclists
                0x00007d70       0x54 NuttX/nuttx/mm/libmm.a(mm_size2ndx.o)
 .debug_loclists
                0x00007dc4      0x112 NuttX/nuttx/mm/libmm.a(mm_free.o)
 .debug_loclists
                0x00007ed6      0x153 NuttX/nuttx/mm/libmm.a(mm_malloc.o)
 .debug_loclists
                0x00008029       0x51 NuttX/nuttx/mm/libmm.a(mm_zalloc.o)
 .debug_loclists
                0x0000807a       0x20 NuttX/nuttx/libs/libc/libc.a(lib_errno.o)
 .debug_loclists
                0x0000809a       0x68 NuttX/nuttx/libs/libc/libc.a(sq_rem.o)
 .debug_loclists
                0x00008102       0x3b NuttX/nuttx/libs/libc/libc.a(sq_remfirst.o)
 .debug_loclists
                0x0000813d       0x48 NuttX/nuttx/libs/libc/libc.a(sq_remafter.o)
 .debug_loclists
                0x00008185       0x20 NuttX/nuttx/libs/libc/libc.a(dq_rem.o)
 .debug_loclists
                0x000081a5       0x48 NuttX/nuttx/libs/libc/libc.a(task_startup.o)
 .debug_loclists
                0x000081ed      0x14a NuttX/nuttx/libs/libc/libc.a(sem_init.o)
 .debug_loclists
                0x00008337       0x9a NuttX/nuttx/libs/libc/libc.a(sem_getvalue.o)
 .debug_loclists
                0x000083d1       0x79 NuttX/nuttx/libs/libc/libc.a(sig_addset.o)
 .debug_loclists
                0x0000844a       0x79 NuttX/nuttx/libs/libc/libc.a(sig_delset.o)
 .debug_loclists
                0x000084c3       0x20 NuttX/nuttx/libs/libc/libc.a(sig_emptyset.o)
 .debug_loclists
                0x000084e3       0x79 NuttX/nuttx/libs/libc/libc.a(sig_ismember.o)
 .debug_loclists
                0x0000855c       0x17 NuttX/nuttx/libs/libc/libc.a(lib_printf.o)
 .debug_loclists
                0x00008573       0xad NuttX/nuttx/libs/libc/libc.a(lib_libflushall.o)
 .debug_loclists
                0x00008620       0xc2 NuttX/nuttx/libs/libc/libc.a(lib_libfflush.o)
 .debug_loclists
                0x000086e2       0x7d NuttX/nuttx/libs/libc/libc.a(lib_vfprintf.o)
 .debug_loclists
                0x0000875f      0x183 NuttX/nuttx/libs/libc/libc.a(lib_libstream.o)
 .debug_loclists
                0x000088e2      0x1a6 NuttX/nuttx/libs/libc/libc.a(lib_libfilesem.o)
 .debug_loclists
                0x00008a88       0xae NuttX/nuttx/libs/libc/libc.a(lib_stdoutstream.o)
 .debug_loclists
                0x00008b36       0x3f NuttX/nuttx/libs/libc/libc.a(lib_strcpy.o)
 .debug_loclists
                0x00008b75       0xc6 NuttX/nuttx/libs/libc/libc.a(lib_strlcpy.o)
 .debug_loclists
                0x00008c3b       0x3d NuttX/nuttx/libs/libc/libc.a(lib_strlen.o)
 .debug_loclists
                0x00008c78       0x8c NuttX/nuttx/libs/libc/libc.a(lib_strncpy.o)
 .debug_loclists
                0x00008d04       0x6f NuttX/nuttx/libs/libc/libc.a(lib_cfspeed.o)
 .debug_loclists
                0x00008d73       0x34 NuttX/nuttx/libs/libc/libc.a(tls_getinfo.o)
 .debug_loclists
                0x00008da7       0x3b NuttX/nuttx/libs/libc/libc.a(lib_cxx_initialize.o)
 .debug_loclists
                0x00008de2      0xc48 NuttX/nuttx/libs/libc/libc.a(lib_libvsprintf.o)
 .debug_loclists
                0x00009a2a       0xb3 NuttX/nuttx/libs/libc/libc.a(lib_ultoa_invert.o)
 .debug_loclists
                0x00009add      0x29d NuttX/nuttx/libs/libc/libc.a(lib_dtoa_engine.o)
 .debug_loclists
                0x00009d7a       0x5f NuttX/nuttx/libs/libc/libc.a(lib_fputc.o)
 .debug_loclists
                0x00009dd9       0x29 NuttX/nuttx/libs/libc/libc.a(lib_libnoflush.o)
 .debug_loclists
                0x00009e02       0x61 NuttX/nuttx/libs/libc/libc.a(lib_strnlen.o)
 .debug_loclists
                0x00009e63      0x243 NuttX/nuttx/libs/libc/libc.a(lib_libfwrite.o)
 .debug_loclists
                0x0000a0a6       0x55 NuttX/nuttx/libs/libc/libc.a(lib_rdflush.o)
 .debug_loclists
                0x0000a0fb       0x63 NuttX/nuttx/libs/libc/libc.a(lib_fseek.o)
 .debug_loclists
                0x0000a15e       0x48 NuttX/nuttx/libs/libc/libc.a(lib_fseeko.o)
 .debug_loclists
                0x0000a1a6       0x40 NuttX/nuttx/libs/libc/libc.a(lib_wrflush.o)
 .debug_loclists
                0x0000a1e6      0x63d platforms/nuttx/src/bootloader/common/libbootloader.a(bl.c.obj)
 .debug_loclists
                0x0000a823       0xd2 platforms/nuttx/src/bootloader/common/lib/libbootloader_lib.a(cdcacm.c.obj)
 .debug_loclists
                0x0000a8f5      0x181 platforms/nuttx/src/bootloader/common/lib/libbootloader_lib.a(uart.c.obj)
 .debug_loclists
                0x0000aa76      0x1d8 NuttX/nuttx/boards/libboards.a(boardctl.o)
 .debug_loclists
                0x0000ac4e       0xe3 NuttX/nuttx/drivers/libdrivers.a(dev_null.o)
 .debug_loclists
                0x0000ad31      0xf6c NuttX/nuttx/drivers/libdrivers.a(serial.o)
 .debug_loclists
                0x0000bc9d      0x112 NuttX/nuttx/drivers/libdrivers.a(serial_io.o)
 .debug_loclists
                0x0000bdaf       0x23 NuttX/nuttx/drivers/libdrivers.a(syslog_flush.o)
 .debug_loclists
                0x0000bdd2     0x17d6 NuttX/nuttx/drivers/libdrivers.a(cdcacm.o)
 .debug_loclists
                0x0000d5a8      0x3b5 NuttX/nuttx/drivers/libdrivers.a(cdcacm_desc.o)
 .debug_loclists
                0x0000d95d      0x10a NuttX/nuttx/drivers/libdrivers.a(syslog_channel.o)
 .debug_loclists
                0x0000da67      0x4c2 NuttX/nuttx/fs/libfs.a(fs_files.o)
 .debug_loclists
                0x0000df29       0xa5 NuttX/nuttx/fs/libfs.a(fs_inode.o)
 .debug_loclists
                0x0000dfce      0x2cc NuttX/nuttx/fs/libfs.a(fs_inodereserve.o)
 .debug_loclists
                0x0000e29a      0x1dc NuttX/nuttx/fs/libfs.a(fs_inodesearch.o)
 .debug_loclists
                0x0000e476       0x62 NuttX/nuttx/fs/libfs.a(fs_close.o)
 .debug_loclists
                0x0000e4d8      0x1c7 NuttX/nuttx/fs/libfs.a(fs_lseek.o)
 .debug_loclists
                0x0000e69f      0x324 NuttX/nuttx/fs/libfs.a(fs_open.o)
 .debug_loclists
                0x0000e9c3      0x19a NuttX/nuttx/fs/libfs.a(fs_read.o)
 .debug_loclists
                0x0000eb5d      0x1b9 NuttX/nuttx/fs/libfs.a(fs_write.o)
 .debug_loclists
                0x0000ed16      0x6f0 NuttX/nuttx/fs/libfs.a(fs_dir.o)
 .debug_loclists
                0x0000f406      0x19c NuttX/nuttx/fs/libfs.a(fs_fdopen.o)
 .debug_loclists
                0x0000f5a2       0x7e NuttX/nuttx/fs/libfs.a(fs_registerdriver.o)
 .debug_loclists
                0x0000f620       0x42 NuttX/nuttx/fs/libfs.a(fs_unregisterdriver.o)
 .debug_loclists
                0x0000f662       0x52 NuttX/nuttx/fs/libfs.a(fs_inodeaddref.o)
 .debug_loclists
                0x0000f6b4       0x4d NuttX/nuttx/fs/libfs.a(fs_inodefind.o)
 .debug_loclists
                0x0000f701       0x69 NuttX/nuttx/fs/libfs.a(fs_inoderelease.o)
 .debug_loclists
                0x0000f76a       0x9a NuttX/nuttx/fs/libfs.a(fs_inoderemove.o)
 .debug_loclists
                0x0000f804       0x3e NuttX/nuttx/fs/libfs.a(fs_inodefree.o)
 .debug_loclists
                0x0000f842       0x45 NuttX/nuttx/sched/libsched.a(clock_initialize.o)
 .debug_loclists
                0x0000f887       0x2c NuttX/nuttx/sched/libsched.a(sched_getfiles.o)
 .debug_loclists
                0x0000f8b3       0x5e NuttX/nuttx/sched/libsched.a(sched_addreadytorun.o)
 .debug_loclists
                0x0000f911       0x4f NuttX/nuttx/sched/libsched.a(sched_removereadytorun.o)
 .debug_loclists
                0x0000f960       0x6d NuttX/nuttx/sched/libsched.a(sched_mergepending.o)
 .debug_loclists
                0x0000f9cd       0x23 NuttX/nuttx/sched/libsched.a(sched_getstreams.o)
 .debug_loclists
                0x0000f9f0       0x17 NuttX/nuttx/sched/libsched.a(sched_idletask.o)
 .debug_loclists
                0x0000fa07       0x88 NuttX/nuttx/sched/libsched.a(sched_get_stackinfo.o)
 .debug_loclists
                0x0000fa8f      0x14b NuttX/nuttx/sched/libsched.a(sem_wait.o)
 .debug_loclists
                0x0000fbda      0x15f NuttX/nuttx/sched/libsched.a(sem_post.o)
 .debug_loclists
                0x0000fd39       0x84 NuttX/nuttx/sched/libsched.a(sem_reset.o)
 .debug_loclists
                0x0000fdbd       0xc0 NuttX/nuttx/sched/libsched.a(sig_kill.o)
 .debug_loclists
                0x0000fe7d       0x6c NuttX/nuttx/sched/libsched.a(sig_usleep.o)
 .debug_loclists
                0x0000fee9       0x2d NuttX/nuttx/sched/libsched.a(task_exit.o)
 .debug_loclists
                0x0000ff16       0x20 NuttX/nuttx/sched/libsched.a(task_getpid.o)
 .debug_loclists
                0x0000ff36       0x83 NuttX/nuttx/sched/libsched.a(task_terminate.o)
 .debug_loclists
                0x0000ffb9       0x20 NuttX/nuttx/sched/libsched.a(task_gettid.o)
 .debug_loclists
                0x0000ffd9      0x1c4 NuttX/nuttx/sched/libsched.a(wd_start.o)
 .debug_loclists
                0x0001019d      0x1bf NuttX/nuttx/sched/libsched.a(sig_nanosleep.o)
 .debug_loclists
                0x0001035c      0x212 NuttX/nuttx/sched/libsched.a(sig_timedwait.o)
 .debug_loclists
                0x0001056e       0x79 NuttX/nuttx/arch/arm/src/libarch.a(stm32_timerisr.o)
 .debug_loclists
                0x000105e7       0x61 NuttX/nuttx/arch/arm/src/libarch.a(arm_nputs.o)
 .debug_loclists
                0x00010648       0x54 NuttX/nuttx/mm/libmm.a(umm_realloc.o)
 .debug_loclists
                0x0001069c      0x38f NuttX/nuttx/mm/libmm.a(mm_realloc.o)
 .debug_loclists
                0x00010a2b       0xf2 NuttX/nuttx/mm/libmm.a(mm_shrinkchunk.o)
 .debug_loclists
                0x00010b1d       0x4a NuttX/nuttx/libs/libc/libc.a(lib_umask.o)
 .debug_loclists
                0x00010b67       0x8d NuttX/nuttx/libs/libc/libc.a(sq_addafter.o)
 .debug_loclists
                0x00010bf4       0x29 NuttX/nuttx/libs/libc/libc.a(clock_ticks2time.o)
 .debug_loclists
                0x00010c1d       0x9f NuttX/nuttx/libs/libc/libc.a(clock_time2ticks.o)
 .debug_loclists
                0x00010cbc       0x83 NuttX/nuttx/libs/libc/libc.a(sem_setprotocol.o)
 .debug_loclists
                0x00010d3f       0x34 NuttX/nuttx/libs/libc/libc.a(lib_asprintf.o)
 .debug_loclists
                0x00010d73       0xb5 NuttX/nuttx/libs/libc/libc.a(lib_snprintf.o)
 .debug_loclists
                0x00010e28       0x85 NuttX/nuttx/libs/libc/libc.a(lib_vasprintf.o)
 .debug_loclists
                0x00010ead       0x29 NuttX/nuttx/libs/libc/libc.a(lib_atol.o)
 .debug_loclists
                0x00010ed6       0xfc NuttX/nuttx/libs/libc/libc.a(lib_strtol.o)
 .debug_loclists
                0x00010fd2      0x138 NuttX/nuttx/libs/libc/libc.a(lib_strtoul.o)
 .debug_loclists
                0x0001110a       0x9a NuttX/nuttx/libs/libc/libc.a(lib_checkbase.o)
 .debug_loclists
                0x000111a4       0xc9 NuttX/nuttx/libs/libc/libc.a(lib_memoutstream.o)
 .debug_loclists
                0x0001126d       0xf8 NuttX/nuttx/libs/libc/libc.a(lib_isbasedigit.o)
 .debug_loclists
                0x00011365       0x3c NuttX/nuttx/libs/libc/libc.a(lib_skipspace.o)
 .debug_loclists
                0x000113a1       0x34 NuttX/nuttx/libs/libc/libc.a(lib_strdup.o)
 .debug_loclists
                0x000113d5       0x46 NuttX/nuttx/libs/libc/libc.a(lib_strtok.o)
 .debug_loclists
                0x0001141b       0xdb NuttX/nuttx/libs/libc/libc.a(lib_strtokr.o)
 .debug_loclists
                0x000114f6       0x29 NuttX/nuttx/libs/libc/libc.a(lib_strchr.o)
 .debug_loclists
                0x0001151f       0x4d NuttX/nuttx/libs/libc/libc.a(lib_tcgetattr.o)
 .debug_loclists
                0x0001156c       0x86 NuttX/nuttx/libs/libc/libc.a(lib_tcsetattr.o)
 .debug_loclists
                0x000115f2       0x17 NuttX/nuttx/libs/libc/libc.a(task_getinfo.o)
 .debug_loclists
                0x00011609       0x49 NuttX/nuttx/libs/libc/libc.a(lib_isspace.o)
 .debug_loclists
                0x00011652       0x4d NuttX/nuttx/libs/libc/libc.a(lib_tcflush.o)
 .debug_loclists
                0x0001169f       0x29 NuttX/nuttx/libs/libc/libc.a(lib_tcdrain.o)
 .debug_loclists
                0x000116c8      0x26d NuttX/nuttx/fs/libfs.a(fs_ioctl.o)
 .debug_loclists
                0x00011935       0x70 NuttX/nuttx/fs/libfs.a(fs_inodegetpath.o)
 .debug_loclists
                0x000119a5       0x68 NuttX/nuttx/libs/libc/libc.a(lib_strcat.o)
 .debug_loclists
                0x00011a0d      0x689 platforms/nuttx/src/bootloader/stm/stm32h7/arch_bootloader/libarch_bootloader.a(main.c.obj)
 .debug_loclists
                0x00012096       0x4d platforms/nuttx/src/bootloader/stm/stm32h7/arch_bootloader/libarch_bootloader.a(systick.c.obj)
 .debug_loclists
                0x000120e3       0x84 platforms/nuttx/src/px4/stm/stm32h7/board_reset/libarch_board_reset.a(board_reset.cpp.obj)
 .debug_loclists
                0x00012167      0xbfa NuttX/nuttx/arch/arm/src/libarch.a(stm32_flash.o)
 .debug_loclists
                0x00012d61       0x20 NuttX/nuttx/arch/arm/src/libarch.a(arm_systemreset.o)
 .debug_loclists
                0x00012d81      0x2e3 platforms/nuttx/src/bootloader/common/lib/libbootloader_lib.a(flash_cache.c.obj)

.debug_rnglists
                0x00000000     0x28e2
 .debug_rnglists
                0x00000000       0x14 NuttX/nuttx/arch/arm/src/libarch.a(stm32_start.o)
 .debug_rnglists
                0x00000014       0x27 NuttX/nuttx/arch/arm/src/libarch.a(stm32_rcc.o)
 .debug_rnglists
                0x0000003b       0x19 NuttX/nuttx/arch/arm/src/libarch.a(stm32_lowputc.o)
 .debug_rnglists
                0x00000054       0xce NuttX/nuttx/arch/arm/src/libarch.a(stm32_pwr.o)
 .debug_rnglists
                0x00000122       0x37 NuttX/nuttx/arch/arm/src/libarch.a(arm_modifyreg32.o)
 .debug_rnglists
                0x00000159       0x13 NuttX/nuttx/arch/arm/src/libarch.a(arm_udelay.o)
 .debug_rnglists
                0x0000016c       0x25 NuttX/nuttx/arch/arm/src/libarch.a(arm_cache.o)
 .debug_rnglists
                0x00000191       0x13 NuttX/nuttx/arch/arm/src/libarch.a(arm_doirq.o)
 .debug_rnglists
                0x000001a4       0x1f NuttX/nuttx/arch/arm/src/libarch.a(arm_fpuconfig.o)
 .debug_rnglists
                0x000001c3       0x2d NuttX/nuttx/arch/arm/src/libarch.a(stm32_irq.o)
 .debug_rnglists
                0x000001f0       0x13 NuttX/nuttx/arch/arm/src/libarch.a(arm_hardfault.o)
 .debug_rnglists
                0x00000203       0x13 NuttX/nuttx/arch/arm/src/libarch.a(arm_svcall.o)
 .debug_rnglists
                0x00000216       0x13 NuttX/nuttx/libs/libc/libc.a(lib_assert.o)
 .debug_rnglists
                0x00000229       0x13 NuttX/nuttx/libs/libc/libc.a(lib_abort.o)
 .debug_rnglists
                0x0000023c       0x19 NuttX/nuttx/libs/libc/libc.a(lib_exit.o)
 .debug_rnglists
                0x00000255       0x14 NuttX/nuttx/libs/libc/libc.a(lib_memset.o)
 .debug_rnglists
                0x00000269       0x2b boards/hkust/nxt-dual/src/libdrivers_board.a(bootloader_main.c.obj)
 .debug_rnglists
                0x00000294       0x19 boards/hkust/nxt-dual/src/libdrivers_board.a(usb.c.obj)
 .debug_rnglists
                0x000002ad       0x35 NuttX/nuttx/sched/libsched.a(nx_start.o)
 .debug_rnglists
                0x000002e2       0x31 NuttX/nuttx/sched/libsched.a(nx_bringup.o)
 .debug_rnglists
                0x00000313       0x1f NuttX/nuttx/sched/libsched.a(irq_attach.o)
 .debug_rnglists
                0x00000332       0x13 NuttX/nuttx/sched/libsched.a(irq_dispatch.o)
 .debug_rnglists
                0x00000345       0x2b NuttX/nuttx/sched/libsched.a(irq_unexpectedisr.o)
 .debug_rnglists
                0x00000370       0x13 NuttX/nuttx/sched/libsched.a(sched_lock.o)
 .debug_rnglists
                0x00000383       0x1f NuttX/nuttx/sched/libsched.a(sched_unlock.o)
 .debug_rnglists
                0x000003a2       0x2b NuttX/nuttx/sched/libsched.a(task_create.o)
 .debug_rnglists
                0x000003cd       0x1a NuttX/nuttx/sched/libsched.a(task_init.o)
 .debug_rnglists
                0x000003e7       0x6e NuttX/nuttx/sched/libsched.a(task_setup.o)
 .debug_rnglists
                0x00000455       0x2b NuttX/nuttx/sched/libsched.a(task_activate.o)
 .debug_rnglists
                0x00000480       0x13 NuttX/nuttx/sched/libsched.a(task_start.o)
 .debug_rnglists
                0x00000493       0x13 NuttX/nuttx/sched/libsched.a(exit.o)
 .debug_rnglists
                0x000004a6       0x13 NuttX/nuttx/sched/libsched.a(tls_initinfo.o)
 .debug_rnglists
                0x000004b9       0x19 NuttX/nuttx/sched/libsched.a(group_create.o)
 .debug_rnglists
                0x000004d2       0x13 NuttX/nuttx/sched/libsched.a(group_leave.o)
 .debug_rnglists
                0x000004e5       0x13 NuttX/nuttx/sched/libsched.a(group_setupidlefiles.o)
 .debug_rnglists
                0x000004f8       0x13 NuttX/nuttx/sched/libsched.a(group_setuptaskfiles.o)
 .debug_rnglists
                0x0000050b       0x13 NuttX/nuttx/sched/libsched.a(irq_initialize.o)
 .debug_rnglists
                0x0000051e       0x13 NuttX/nuttx/sched/libsched.a(sched_releasetcb.o)
 .debug_rnglists
                0x00000531       0x19 NuttX/nuttx/sched/libsched.a(sig_procmask.o)
 .debug_rnglists
                0x0000054a       0x13 NuttX/nuttx/sched/libsched.a(sig_unmaskpendingsignal.o)
 .debug_rnglists
                0x0000055d       0x13 NuttX/nuttx/sched/libsched.a(sig_removependingsignal.o)
 .debug_rnglists
                0x00000570       0x13 NuttX/nuttx/sched/libsched.a(sig_releasependingsignal.o)
 .debug_rnglists
                0x00000583       0x13 NuttX/nuttx/sched/libsched.a(sig_lowest.o)
 .debug_rnglists
                0x00000596       0x19 NuttX/nuttx/sched/libsched.a(sig_cleanup.o)
 .debug_rnglists
                0x000005af       0x85 NuttX/nuttx/sched/libsched.a(sig_dispatch.o)
 .debug_rnglists
                0x00000634       0x38 NuttX/nuttx/sched/libsched.a(sig_deliver.o)
 .debug_rnglists
                0x0000066c       0x85 NuttX/nuttx/sched/libsched.a(sig_default.o)
 .debug_rnglists
                0x000006f1       0x13 NuttX/nuttx/sched/libsched.a(task_exithook.o)
 .debug_rnglists
                0x00000704       0x13 NuttX/nuttx/sched/libsched.a(task_recover.o)
 .debug_rnglists
                0x00000717       0x13 NuttX/nuttx/sched/libsched.a(task_initinfo.o)
 .debug_rnglists
                0x0000072a       0x13 NuttX/nuttx/sched/libsched.a(task_uninitinfo.o)
 .debug_rnglists
                0x0000073d       0x13 NuttX/nuttx/sched/libsched.a(wd_recover.o)
 .debug_rnglists
                0x00000750       0x13 NuttX/nuttx/sched/libsched.a(group_setupstreams.o)
 .debug_rnglists
                0x00000763       0x2b NuttX/nuttx/sched/libsched.a(sched_gettcb.o)
 .debug_rnglists
                0x0000078e       0x2b NuttX/nuttx/sched/libsched.a(sched_suspend.o)
 .debug_rnglists
                0x000007b9       0x2b NuttX/nuttx/sched/libsched.a(sched_continue.o)
 .debug_rnglists
                0x000007e4       0x19 NuttX/nuttx/sched/libsched.a(sem_destroy.o)
 .debug_rnglists
                0x000007fd       0x13 NuttX/nuttx/sched/libsched.a(sem_recover.o)
 .debug_rnglists
                0x00000810       0x2b NuttX/nuttx/sched/libsched.a(sem_waitirq.o)
 .debug_rnglists
                0x0000083b       0x20 NuttX/nuttx/sched/libsched.a(sig_initialize.o)
 .debug_rnglists
                0x0000085b       0xb4 NuttX/nuttx/sched/libsched.a(sig_action.o)
 .debug_rnglists
                0x0000090f       0x19 NuttX/nuttx/sched/libsched.a(sig_pending.o)
 .debug_rnglists
                0x00000928       0x13 NuttX/nuttx/sched/libsched.a(sig_findaction.o)
 .debug_rnglists
                0x0000093b       0x1f NuttX/nuttx/sched/libsched.a(sig_allocpendingsigaction.o)
 .debug_rnglists
                0x0000095a       0x13 NuttX/nuttx/sched/libsched.a(sig_releasependingsigaction.o)
 .debug_rnglists
                0x0000096d       0x2b NuttX/nuttx/sched/libsched.a(wd_cancel.o)
 .debug_rnglists
                0x00000998       0x13 NuttX/nuttx/sched/libsched.a(sched_addblocked.o)
 .debug_rnglists
                0x000009ab       0x13 NuttX/nuttx/sched/libsched.a(sched_removeblocked.o)
 .debug_rnglists
                0x000009be       0x13 NuttX/nuttx/sched/libsched.a(sched_addprioritized.o)
 .debug_rnglists
                0x000009d1       0x13 NuttX/nuttx/binfmt/libbinfmt.a(binfmt_initialize.o)
 .debug_rnglists
                0x000009e4       0x19 NuttX/apps/libapps.a(cdcacm_main.c.Users.carbs.Desktop.PX4-Autopilot.platforms.nuttx.NuttX.apps.system.cdcacm.o)
 .debug_rnglists
                0x000009fd       0x13 NuttX/nuttx/arch/arm/src/libarch.a(stm32_allocateheap.o)
 .debug_rnglists
                0x00000a10       0x2c NuttX/nuttx/arch/arm/src/libarch.a(stm32_gpio.o)
 .debug_rnglists
                0x00000a3c       0x1f NuttX/nuttx/arch/arm/src/libarch.a(arm_assert.o)
 .debug_rnglists
                0x00000a5b       0x1f NuttX/nuttx/arch/arm/src/libarch.a(arm_blocktask.o)
 .debug_rnglists
                0x00000a7a       0x13 NuttX/nuttx/arch/arm/src/libarch.a(arm_createstack.o)
 .debug_rnglists
                0x00000a8d       0x13 NuttX/nuttx/arch/arm/src/libarch.a(arm_exit.o)
 .debug_rnglists
                0x00000aa0       0x1f NuttX/nuttx/arch/arm/src/libarch.a(arm_fullcontextrestore.o)
 .debug_rnglists
                0x00000abf       0x22 NuttX/nuttx/arch/arm/src/libarch.a(arm_initialize.o)
 .debug_rnglists
                0x00000ae1       0x1f NuttX/nuttx/arch/arm/src/libarch.a(arm_releasepending.o)
 .debug_rnglists
                0x00000b00       0x13 NuttX/nuttx/arch/arm/src/libarch.a(arm_releasestack.o)
 .debug_rnglists
                0x00000b13       0x13 NuttX/nuttx/arch/arm/src/libarch.a(arm_stackframe.o)
 .debug_rnglists
                0x00000b26       0x1f NuttX/nuttx/arch/arm/src/libarch.a(arm_switchcontext.o)
 .debug_rnglists
                0x00000b45       0x1f NuttX/nuttx/arch/arm/src/libarch.a(arm_unblocktask.o)
 .debug_rnglists
                0x00000b64       0x13 NuttX/nuttx/arch/arm/src/libarch.a(arm_usestack.o)
 .debug_rnglists
                0x00000b77       0x55 NuttX/nuttx/arch/arm/src/libarch.a(arm_checkstack.o)
 .debug_rnglists
                0x00000bcc       0x13 NuttX/nuttx/arch/arm/src/libarch.a(arm_idle.o)
 .debug_rnglists
                0x00000bdf       0x13 NuttX/nuttx/arch/arm/src/libarch.a(arm_initialstate.o)
 .debug_rnglists
                0x00000bf2       0x14 NuttX/nuttx/arch/arm/src/libarch.a(arm_schedulesigaction.o)
 .debug_rnglists
                0x00000c06       0x2b NuttX/nuttx/arch/arm/src/libarch.a(arm_sigdeliver.o)
 .debug_rnglists
                0x00000c31      0x16b NuttX/nuttx/arch/arm/src/libarch.a(stm32_serial.o)
 .debug_rnglists
                0x00000d9c      0x36f NuttX/nuttx/arch/arm/src/libarch.a(stm32_otgdev.o)
 .debug_rnglists
                0x0000110b       0x13 NuttX/nuttx/arch/arm/src/libarch.a(arm_mdelay.o)
 .debug_rnglists
                0x0000111e       0x13 NuttX/nuttx/mm/libmm.a(umm_initialize.o)
 .debug_rnglists
                0x00001131       0x13 NuttX/nuttx/mm/libmm.a(umm_free.o)
 .debug_rnglists
                0x00001144       0x13 NuttX/nuttx/mm/libmm.a(umm_malloc.o)
 .debug_rnglists
                0x00001157       0x13 NuttX/nuttx/mm/libmm.a(umm_zalloc.o)
 .debug_rnglists
                0x0000116a       0x1f NuttX/nuttx/mm/libmm.a(mm_initialize.o)
 .debug_rnglists
                0x00001189       0x25 NuttX/nuttx/mm/libmm.a(mm_sem.o)
 .debug_rnglists
                0x000011ae       0x13 NuttX/nuttx/mm/libmm.a(mm_addfreechunk.o)
 .debug_rnglists
                0x000011c1       0x13 NuttX/nuttx/mm/libmm.a(mm_size2ndx.o)
 .debug_rnglists
                0x000011d4       0x20 NuttX/nuttx/mm/libmm.a(mm_free.o)
 .debug_rnglists
                0x000011f4       0x55 NuttX/nuttx/mm/libmm.a(mm_malloc.o)
 .debug_rnglists
                0x00001249       0x13 NuttX/nuttx/mm/libmm.a(mm_zalloc.o)
 .debug_rnglists
                0x0000125c       0x13 NuttX/nuttx/libs/libc/libc.a(lib_errno.o)
 .debug_rnglists
                0x0000126f       0x13 NuttX/nuttx/libs/libc/libc.a(sq_addlast.o)
 .debug_rnglists
                0x00001282       0x13 NuttX/nuttx/libs/libc/libc.a(sq_rem.o)
 .debug_rnglists
                0x00001295       0x13 NuttX/nuttx/libs/libc/libc.a(sq_remfirst.o)
 .debug_rnglists
                0x000012a8       0x13 NuttX/nuttx/libs/libc/libc.a(sq_remafter.o)
 .debug_rnglists
                0x000012bb       0x13 NuttX/nuttx/libs/libc/libc.a(dq_addlast.o)
 .debug_rnglists
                0x000012ce       0x13 NuttX/nuttx/libs/libc/libc.a(dq_addfirst.o)
 .debug_rnglists
                0x000012e1       0x13 NuttX/nuttx/libs/libc/libc.a(dq_rem.o)
 .debug_rnglists
                0x000012f4       0x13 NuttX/nuttx/libs/libc/libc.a(task_startup.o)
 .debug_rnglists
                0x00001307       0x25 NuttX/nuttx/libs/libc/libc.a(sem_init.o)
 .debug_rnglists
                0x0000132c       0x19 NuttX/nuttx/libs/libc/libc.a(sem_getvalue.o)
 .debug_rnglists
                0x00001345       0x19 NuttX/nuttx/libs/libc/libc.a(sig_addset.o)
 .debug_rnglists
                0x0000135e       0x19 NuttX/nuttx/libs/libc/libc.a(sig_delset.o)
 .debug_rnglists
                0x00001377       0x13 NuttX/nuttx/libs/libc/libc.a(sig_emptyset.o)
 .debug_rnglists
                0x0000138a       0x19 NuttX/nuttx/libs/libc/libc.a(sig_ismember.o)
 .debug_rnglists
                0x000013a3       0x13 NuttX/nuttx/libs/libc/libc.a(lib_printf.o)
 .debug_rnglists
                0x000013b6       0x25 NuttX/nuttx/libs/libc/libc.a(lib_libflushall.o)
 .debug_rnglists
                0x000013db       0x14 NuttX/nuttx/libs/libc/libc.a(lib_libfflush.o)
 .debug_rnglists
                0x000013ef       0x13 NuttX/nuttx/libs/libc/libc.a(lib_vfprintf.o)
 .debug_rnglists
                0x00001402       0x3a NuttX/nuttx/libs/libc/libc.a(lib_libstream.o)
 .debug_rnglists
                0x0000143c       0x64 NuttX/nuttx/libs/libc/libc.a(lib_libfilesem.o)
 .debug_rnglists
                0x000014a0       0x1f NuttX/nuttx/libs/libc/libc.a(lib_stdoutstream.o)
 .debug_rnglists
                0x000014bf       0x13 NuttX/nuttx/libs/libc/libc.a(lib_strcpy.o)
 .debug_rnglists
                0x000014d2       0x13 NuttX/nuttx/libs/libc/libc.a(lib_strlcpy.o)
 .debug_rnglists
                0x000014e5       0x13 NuttX/nuttx/libs/libc/libc.a(lib_strlen.o)
 .debug_rnglists
                0x000014f8       0x13 NuttX/nuttx/libs/libc/libc.a(lib_strncpy.o)
 .debug_rnglists
                0x0000150b       0x19 NuttX/nuttx/libs/libc/libc.a(lib_cfspeed.o)
 .debug_rnglists
                0x00001524       0x13 NuttX/nuttx/libs/libc/libc.a(tls_getinfo.o)
 .debug_rnglists
                0x00001537       0x2b NuttX/nuttx/libs/libc/libc.a(lib_cxx_initialize.o)
 .debug_rnglists
                0x00001562       0x89 NuttX/nuttx/libs/libc/libc.a(lib_libvsprintf.o)
 .debug_rnglists
                0x000015eb       0x25 NuttX/nuttx/libs/libc/libc.a(lib_ultoa_invert.o)
 .debug_rnglists
                0x00001610       0x14 NuttX/nuttx/libs/libc/libc.a(lib_dtoa_engine.o)
 .debug_rnglists
                0x00001624       0x13 NuttX/nuttx/libs/libc/libc.a(lib_fputc.o)
 .debug_rnglists
                0x00001637       0x13 NuttX/nuttx/libs/libc/libc.a(lib_libnoflush.o)
 .debug_rnglists
                0x0000164a       0x13 NuttX/nuttx/libs/libc/libc.a(lib_strnlen.o)
 .debug_rnglists
                0x0000165d       0x20 NuttX/nuttx/libs/libc/libc.a(lib_libfwrite.o)
 .debug_rnglists
                0x0000167d       0x13 NuttX/nuttx/libs/libc/libc.a(lib_rdflush.o)
 .debug_rnglists
                0x00001690       0x13 NuttX/nuttx/libs/libc/libc.a(lib_fseek.o)
 .debug_rnglists
                0x000016a3       0x13 NuttX/nuttx/libs/libc/libc.a(lib_fseeko.o)
 .debug_rnglists
                0x000016b6       0x13 NuttX/nuttx/libs/libc/libc.a(lib_wrflush.o)
 .debug_rnglists
                0x000016c9      0x17a platforms/nuttx/src/bootloader/common/libbootloader.a(bl.c.obj)
 .debug_rnglists
                0x00001843       0x31 platforms/nuttx/src/bootloader/common/lib/libbootloader_lib.a(cdcacm.c.obj)
 .debug_rnglists
                0x00001874       0x35 platforms/nuttx/src/bootloader/common/lib/libbootloader_lib.a(uart.c.obj)
 .debug_rnglists
                0x000018a9       0x25 NuttX/nuttx/boards/libboards.a(boardctl.o)
 .debug_rnglists
                0x000018ce       0x13 NuttX/nuttx/drivers/libdrivers.a(drivers_initialize.o)
 .debug_rnglists
                0x000018e1       0x25 NuttX/nuttx/drivers/libdrivers.a(dev_null.o)
 .debug_rnglists
                0x00001906      0x199 NuttX/nuttx/drivers/libdrivers.a(serial.o)
 .debug_rnglists
                0x00001a9f       0x2a NuttX/nuttx/drivers/libdrivers.a(serial_io.o)
 .debug_rnglists
                0x00001ac9       0x13 NuttX/nuttx/drivers/libdrivers.a(syslog_flush.o)
 .debug_rnglists
                0x00001adc       0x13 NuttX/nuttx/drivers/libdrivers.a(syslog_initialize.o)
 .debug_rnglists
                0x00001aef      0x1f9 NuttX/nuttx/drivers/libdrivers.a(cdcacm.o)
 .debug_rnglists
                0x00001ce8       0xa5 NuttX/nuttx/drivers/libdrivers.a(cdcacm_desc.o)
 .debug_rnglists
                0x00001d8d       0x25 NuttX/nuttx/drivers/libdrivers.a(syslog_channel.o)
 .debug_rnglists
                0x00001db2       0x13 NuttX/nuttx/fs/libfs.a(fs_initialize.o)
 .debug_rnglists
                0x00001dc5       0x63 NuttX/nuttx/fs/libfs.a(fs_files.o)
 .debug_rnglists
                0x00001e28       0x49 NuttX/nuttx/fs/libfs.a(fs_inode.o)
 .debug_rnglists
                0x00001e71       0x59 NuttX/nuttx/fs/libfs.a(fs_inodereserve.o)
 .debug_rnglists
                0x00001eca       0x47 NuttX/nuttx/fs/libfs.a(fs_inodesearch.o)
 .debug_rnglists
                0x00001f11       0x13 NuttX/nuttx/fs/libfs.a(fs_close.o)
 .debug_rnglists
                0x00001f24       0x1f NuttX/nuttx/fs/libfs.a(fs_lseek.o)
 .debug_rnglists
                0x00001f43       0x32 NuttX/nuttx/fs/libfs.a(fs_open.o)
 .debug_rnglists
                0x00001f75       0x1f NuttX/nuttx/fs/libfs.a(fs_read.o)
 .debug_rnglists
                0x00001f94       0x1f NuttX/nuttx/fs/libfs.a(fs_write.o)
 .debug_rnglists
                0x00001fb3       0x7d NuttX/nuttx/fs/libfs.a(fs_dir.o)
 .debug_rnglists
                0x00002030       0x23 NuttX/nuttx/fs/libfs.a(fs_fdopen.o)
 .debug_rnglists
                0x00002053       0x13 NuttX/nuttx/fs/libfs.a(fs_registerdriver.o)
 .debug_rnglists
                0x00002066       0x13 NuttX/nuttx/fs/libfs.a(fs_unregisterdriver.o)
 .debug_rnglists
                0x00002079       0x13 NuttX/nuttx/fs/libfs.a(fs_inodeaddref.o)
 .debug_rnglists
                0x0000208c       0x13 NuttX/nuttx/fs/libfs.a(fs_inodefind.o)
 .debug_rnglists
                0x0000209f       0x13 NuttX/nuttx/fs/libfs.a(fs_inoderelease.o)
 .debug_rnglists
                0x000020b2       0x19 NuttX/nuttx/fs/libfs.a(fs_inoderemove.o)
 .debug_rnglists
                0x000020cb       0x13 NuttX/nuttx/fs/libfs.a(fs_inodefree.o)
 .debug_rnglists
                0x000020de       0x1f NuttX/nuttx/sched/libsched.a(clock_initialize.o)
 .debug_rnglists
                0x000020fd       0x13 NuttX/nuttx/sched/libsched.a(sched_getfiles.o)
 .debug_rnglists
                0x00002110       0x13 NuttX/nuttx/sched/libsched.a(sched_addreadytorun.o)
 .debug_rnglists
                0x00002123       0x13 NuttX/nuttx/sched/libsched.a(sched_removereadytorun.o)
 .debug_rnglists
                0x00002136       0x13 NuttX/nuttx/sched/libsched.a(sched_mergepending.o)
 .debug_rnglists
                0x00002149       0x13 NuttX/nuttx/sched/libsched.a(sched_getstreams.o)
 .debug_rnglists
                0x0000215c       0x13 NuttX/nuttx/sched/libsched.a(sched_idletask.o)
 .debug_rnglists
                0x0000216f       0x13 NuttX/nuttx/sched/libsched.a(sched_self.o)
 .debug_rnglists
                0x00002182       0x13 NuttX/nuttx/sched/libsched.a(sched_get_stackinfo.o)
 .debug_rnglists
                0x00002195       0x1f NuttX/nuttx/sched/libsched.a(sem_wait.o)
 .debug_rnglists
                0x000021b4       0x25 NuttX/nuttx/sched/libsched.a(sem_post.o)
 .debug_rnglists
                0x000021d9       0x13 NuttX/nuttx/sched/libsched.a(sem_reset.o)
 .debug_rnglists
                0x000021ec       0x19 NuttX/nuttx/sched/libsched.a(sig_kill.o)
 .debug_rnglists
                0x00002205       0x13 NuttX/nuttx/sched/libsched.a(sig_usleep.o)
 .debug_rnglists
                0x00002218       0x13 NuttX/nuttx/sched/libsched.a(task_exit.o)
 .debug_rnglists
                0x0000222b       0x13 NuttX/nuttx/sched/libsched.a(task_getpid.o)
 .debug_rnglists
                0x0000223e       0x2b NuttX/nuttx/sched/libsched.a(task_terminate.o)
 .debug_rnglists
                0x00002269       0x13 NuttX/nuttx/sched/libsched.a(task_gettid.o)
 .debug_rnglists
                0x0000227c       0x29 NuttX/nuttx/sched/libsched.a(wd_start.o)
 .debug_rnglists
                0x000022a5       0x26 NuttX/nuttx/sched/libsched.a(sig_nanosleep.o)
 .debug_rnglists
                0x000022cb       0x20 NuttX/nuttx/sched/libsched.a(sig_timedwait.o)
 .debug_rnglists
                0x000022eb       0x19 NuttX/nuttx/arch/arm/src/libarch.a(stm32_timerisr.o)
 .debug_rnglists
                0x00002304       0x13 NuttX/nuttx/arch/arm/src/libarch.a(arm_nputs.o)
 .debug_rnglists
                0x00002317       0x13 NuttX/nuttx/mm/libmm.a(umm_realloc.o)
 .debug_rnglists
                0x0000232a       0x2f NuttX/nuttx/mm/libmm.a(mm_realloc.o)
 .debug_rnglists
                0x00002359       0x22 NuttX/nuttx/mm/libmm.a(mm_shrinkchunk.o)
 .debug_rnglists
                0x0000237b       0x19 NuttX/nuttx/libs/libc/libc.a(lib_umask.o)
 .debug_rnglists
                0x00002394       0x13 NuttX/nuttx/libs/libc/libc.a(sq_addfirst.o)
 .debug_rnglists
                0x000023a7       0x13 NuttX/nuttx/libs/libc/libc.a(sq_addafter.o)
 .debug_rnglists
                0x000023ba       0x13 NuttX/nuttx/libs/libc/libc.a(clock_ticks2time.o)
 .debug_rnglists
                0x000023cd       0x13 NuttX/nuttx/libs/libc/libc.a(clock_time2ticks.o)
 .debug_rnglists
                0x000023e0       0x19 NuttX/nuttx/libs/libc/libc.a(sem_setprotocol.o)
 .debug_rnglists
                0x000023f9       0x13 NuttX/nuttx/libs/libc/libc.a(lib_asprintf.o)
 .debug_rnglists
                0x0000240c       0x13 NuttX/nuttx/libs/libc/libc.a(lib_snprintf.o)
 .debug_rnglists
                0x0000241f       0x13 NuttX/nuttx/libs/libc/libc.a(lib_vasprintf.o)
 .debug_rnglists
                0x00002432       0x13 NuttX/nuttx/libs/libc/libc.a(lib_atol.o)
 .debug_rnglists
                0x00002445       0x1f NuttX/nuttx/libs/libc/libc.a(lib_strtol.o)
 .debug_rnglists
                0x00002464       0x14 NuttX/nuttx/libs/libc/libc.a(lib_strtoul.o)
 .debug_rnglists
                0x00002478       0x13 NuttX/nuttx/libs/libc/libc.a(lib_checkbase.o)
 .debug_rnglists
                0x0000248b       0x1f NuttX/nuttx/libs/libc/libc.a(lib_memoutstream.o)
 .debug_rnglists
                0x000024aa       0x19 NuttX/nuttx/libs/libc/libc.a(lib_nulloutstream.o)
 .debug_rnglists
                0x000024c3       0x13 NuttX/nuttx/libs/libc/libc.a(lib_isbasedigit.o)
 .debug_rnglists
                0x000024d6       0x13 NuttX/nuttx/libs/libc/libc.a(lib_skipspace.o)
 .debug_rnglists
                0x000024e9       0x13 NuttX/nuttx/libs/libc/libc.a(lib_strdup.o)
 .debug_rnglists
                0x000024fc       0x13 NuttX/nuttx/libs/libc/libc.a(lib_strtok.o)
 .debug_rnglists
                0x0000250f       0x13 NuttX/nuttx/libs/libc/libc.a(lib_strtokr.o)
 .debug_rnglists
                0x00002522       0x13 NuttX/nuttx/libs/libc/libc.a(lib_strchr.o)
 .debug_rnglists
                0x00002535       0x13 NuttX/nuttx/libs/libc/libc.a(lib_tcgetattr.o)
 .debug_rnglists
                0x00002548       0x13 NuttX/nuttx/libs/libc/libc.a(lib_tcsetattr.o)
 .debug_rnglists
                0x0000255b       0x13 NuttX/nuttx/libs/libc/libc.a(task_getinfo.o)
 .debug_rnglists
                0x0000256e       0x13 NuttX/nuttx/libs/libc/libc.a(lib_isspace.o)
 .debug_rnglists
                0x00002581       0x13 NuttX/nuttx/libs/libc/libc.a(lib_tcflush.o)
 .debug_rnglists
                0x00002594       0x13 NuttX/nuttx/libs/libc/libc.a(lib_tcdrain.o)
 .debug_rnglists
                0x000025a7       0x4a NuttX/nuttx/fs/libfs.a(fs_ioctl.o)
 .debug_rnglists
                0x000025f1       0x13 NuttX/nuttx/fs/libfs.a(fs_inodegetpath.o)
 .debug_rnglists
                0x00002604       0x13 NuttX/nuttx/sched/libsched.a(sched_processtimer.o)
 .debug_rnglists
                0x00002617       0x13 NuttX/nuttx/libs/libc/libc.a(lib_strcat.o)
 .debug_rnglists
                0x0000262a       0xed platforms/nuttx/src/bootloader/stm/stm32h7/arch_bootloader/libarch_bootloader.a(main.c.obj)
 .debug_rnglists
                0x00002717       0x37 platforms/nuttx/src/bootloader/stm/stm32h7/arch_bootloader/libarch_bootloader.a(systick.c.obj)
 .debug_rnglists
                0x0000274e       0x19 platforms/nuttx/src/px4/stm/stm32h7/board_reset/libarch_board_reset.a(board_reset.cpp.obj)
 .debug_rnglists
                0x00002767       0xee NuttX/nuttx/arch/arm/src/libarch.a(stm32_flash.o)
 .debug_rnglists
                0x00002855       0x13 NuttX/nuttx/arch/arm/src/libarch.a(arm_systemreset.o)
 .debug_rnglists
                0x00002868       0x7a platforms/nuttx/src/bootloader/common/lib/libbootloader_lib.a(flash_cache.c.obj)

.debug_frame    0x00000000     0x4710
 .debug_frame   0x00000000       0x28 NuttX/nuttx/arch/arm/src/libarch.a(stm32_start.o)
 .debug_frame   0x00000028       0x44 NuttX/nuttx/arch/arm/src/libarch.a(stm32_rcc.o)
 .debug_frame   0x0000006c       0x30 NuttX/nuttx/arch/arm/src/libarch.a(stm32_lowputc.o)
 .debug_frame   0x0000009c       0xc8 NuttX/nuttx/arch/arm/src/libarch.a(stm32_pwr.o)
 .debug_frame   0x00000164       0x2c NuttX/nuttx/arch/arm/src/libarch.a(arm_modifyreg32.o)
 .debug_frame   0x00000190       0x2c NuttX/nuttx/arch/arm/src/libarch.a(arm_udelay.o)
 .debug_frame   0x000001bc       0x50 NuttX/nuttx/arch/arm/src/libarch.a(arm_cache.o)
 .debug_frame   0x0000020c       0x2c NuttX/nuttx/arch/arm/src/libarch.a(arm_doirq.o)
 .debug_frame   0x00000238       0x20 NuttX/nuttx/arch/arm/src/libarch.a(arm_fpuconfig.o)
 .debug_frame   0x00000258       0x90 NuttX/nuttx/arch/arm/src/libarch.a(stm32_irq.o)
 .debug_frame   0x000002e8       0x28 NuttX/nuttx/arch/arm/src/libarch.a(arm_hardfault.o)
 .debug_frame   0x00000310       0x28 NuttX/nuttx/arch/arm/src/libarch.a(arm_svcall.o)
 .debug_frame   0x00000338       0x28 NuttX/nuttx/libs/libc/libc.a(lib_assert.o)
 .debug_frame   0x00000360       0x28 NuttX/nuttx/libs/libc/libc.a(lib_abort.o)
 .debug_frame   0x00000388       0x40 NuttX/nuttx/libs/libc/libc.a(lib_exit.o)
 .debug_frame   0x000003c8       0x38 NuttX/nuttx/libs/libc/libc.a(lib_memset.o)
 .debug_frame   0x00000400       0x60 boards/hkust/nxt-dual/src/libdrivers_board.a(bootloader_main.c.obj)
 .debug_frame   0x00000460       0x30 boards/hkust/nxt-dual/src/libdrivers_board.a(usb.c.obj)
 .debug_frame   0x00000490       0x28 NuttX/nuttx/sched/libsched.a(nx_start.o)
 .debug_frame   0x000004b8       0x48 NuttX/nuttx/sched/libsched.a(nx_bringup.o)
 .debug_frame   0x00000500       0x2c NuttX/nuttx/sched/libsched.a(irq_attach.o)
 .debug_frame   0x0000052c       0x28 NuttX/nuttx/sched/libsched.a(irq_dispatch.o)
 .debug_frame   0x00000554       0x28 NuttX/nuttx/sched/libsched.a(irq_unexpectedisr.o)
 .debug_frame   0x0000057c       0x20 NuttX/nuttx/sched/libsched.a(sched_lock.o)
 .debug_frame   0x0000059c       0x28 NuttX/nuttx/sched/libsched.a(sched_unlock.o)
 .debug_frame   0x000005c4       0xa8 NuttX/nuttx/sched/libsched.a(task_create.o)
 .debug_frame   0x0000066c       0x54 NuttX/nuttx/sched/libsched.a(task_init.o)
 .debug_frame   0x000006c0       0x68 NuttX/nuttx/sched/libsched.a(task_setup.o)
 .debug_frame   0x00000728       0x28 NuttX/nuttx/sched/libsched.a(task_activate.o)
 .debug_frame   0x00000750       0x2c NuttX/nuttx/sched/libsched.a(task_start.o)
 .debug_frame   0x0000077c       0x28 NuttX/nuttx/sched/libsched.a(exit.o)
 .debug_frame   0x000007a4       0x28 NuttX/nuttx/sched/libsched.a(tls_initinfo.o)
 .debug_frame   0x000007cc       0x3c NuttX/nuttx/sched/libsched.a(group_create.o)
 .debug_frame   0x00000808       0x2c NuttX/nuttx/sched/libsched.a(group_leave.o)
 .debug_frame   0x00000834       0x20 NuttX/nuttx/sched/libsched.a(group_setupidlefiles.o)
 .debug_frame   0x00000854       0x20 NuttX/nuttx/sched/libsched.a(group_setuptaskfiles.o)
 .debug_frame   0x00000874       0x20 NuttX/nuttx/sched/libsched.a(irq_initialize.o)
 .debug_frame   0x00000894       0x2c NuttX/nuttx/sched/libsched.a(sched_releasetcb.o)
 .debug_frame   0x000008c0       0x48 NuttX/nuttx/sched/libsched.a(sig_procmask.o)
 .debug_frame   0x00000908       0x30 NuttX/nuttx/sched/libsched.a(sig_unmaskpendingsignal.o)
 .debug_frame   0x00000938       0x2c NuttX/nuttx/sched/libsched.a(sig_removependingsignal.o)
 .debug_frame   0x00000964       0x2c NuttX/nuttx/sched/libsched.a(sig_releasependingsignal.o)
 .debug_frame   0x00000990       0x2c NuttX/nuttx/sched/libsched.a(sig_lowest.o)
 .debug_frame   0x000009bc       0x48 NuttX/nuttx/sched/libsched.a(sig_cleanup.o)
 .debug_frame   0x00000a04       0x50 NuttX/nuttx/sched/libsched.a(sig_dispatch.o)
 .debug_frame   0x00000a54       0x40 NuttX/nuttx/sched/libsched.a(sig_deliver.o)
 .debug_frame   0x00000a94       0xc8 NuttX/nuttx/sched/libsched.a(sig_default.o)
 .debug_frame   0x00000b5c       0x28 NuttX/nuttx/sched/libsched.a(task_exithook.o)
 .debug_frame   0x00000b84       0x2c NuttX/nuttx/sched/libsched.a(task_recover.o)
 .debug_frame   0x00000bb0       0x2c NuttX/nuttx/sched/libsched.a(task_initinfo.o)
 .debug_frame   0x00000bdc       0x2c NuttX/nuttx/sched/libsched.a(task_uninitinfo.o)
 .debug_frame   0x00000c08       0x20 NuttX/nuttx/sched/libsched.a(wd_recover.o)
 .debug_frame   0x00000c28       0x28 NuttX/nuttx/sched/libsched.a(group_setupstreams.o)
 .debug_frame   0x00000c50       0x20 NuttX/nuttx/sched/libsched.a(sched_gettcb.o)
 .debug_frame   0x00000c70       0x2c NuttX/nuttx/sched/libsched.a(sched_suspend.o)
 .debug_frame   0x00000c9c       0x28 NuttX/nuttx/sched/libsched.a(sched_continue.o)
 .debug_frame   0x00000cc4       0x38 NuttX/nuttx/sched/libsched.a(sem_destroy.o)
 .debug_frame   0x00000cfc       0x20 NuttX/nuttx/sched/libsched.a(sem_recover.o)
 .debug_frame   0x00000d1c       0x2c NuttX/nuttx/sched/libsched.a(sem_waitirq.o)
 .debug_frame   0x00000d48       0x30 NuttX/nuttx/sched/libsched.a(sig_initialize.o)
 .debug_frame   0x00000d78       0x70 NuttX/nuttx/sched/libsched.a(sig_action.o)
 .debug_frame   0x00000de8       0x48 NuttX/nuttx/sched/libsched.a(sig_pending.o)
 .debug_frame   0x00000e30       0x2c NuttX/nuttx/sched/libsched.a(sig_findaction.o)
 .debug_frame   0x00000e5c       0x30 NuttX/nuttx/sched/libsched.a(sig_allocpendingsigaction.o)
 .debug_frame   0x00000e8c       0x2c NuttX/nuttx/sched/libsched.a(sig_releasependingsigaction.o)
 .debug_frame   0x00000eb8       0x2c NuttX/nuttx/sched/libsched.a(wd_cancel.o)
 .debug_frame   0x00000ee4       0x2c NuttX/nuttx/sched/libsched.a(sched_addblocked.o)
 .debug_frame   0x00000f10       0x28 NuttX/nuttx/sched/libsched.a(sched_removeblocked.o)
 .debug_frame   0x00000f38       0x28 NuttX/nuttx/sched/libsched.a(sched_addprioritized.o)
 .debug_frame   0x00000f60       0x20 NuttX/nuttx/binfmt/libbinfmt.a(binfmt_initialize.o)
 .debug_frame   0x00000f80       0x50 NuttX/apps/libapps.a(cdcacm_main.c.Users.carbs.Desktop.PX4-Autopilot.platforms.nuttx.NuttX.apps.system.cdcacm.o)
 .debug_frame   0x00000fd0       0x20 NuttX/nuttx/arch/arm/src/libarch.a(stm32_allocateheap.o)
 .debug_frame   0x00000ff0       0x74 NuttX/nuttx/arch/arm/src/libarch.a(stm32_gpio.o)
 .debug_frame   0x00001064       0x2c NuttX/nuttx/arch/arm/src/libarch.a(arm_assert.o)
 .debug_frame   0x00001090       0x38 NuttX/nuttx/arch/arm/src/libarch.a(arm_blocktask.o)
 .debug_frame   0x000010c8       0x2c NuttX/nuttx/arch/arm/src/libarch.a(arm_createstack.o)
 .debug_frame   0x000010f4       0x28 NuttX/nuttx/arch/arm/src/libarch.a(arm_exit.o)
 .debug_frame   0x0000111c       0x28 NuttX/nuttx/arch/arm/src/libarch.a(arm_fullcontextrestore.o)
 .debug_frame   0x00001144       0x2c NuttX/nuttx/arch/arm/src/libarch.a(arm_initialize.o)
 .debug_frame   0x00001170       0x34 NuttX/nuttx/arch/arm/src/libarch.a(arm_releasepending.o)
 .debug_frame   0x000011a4       0x28 NuttX/nuttx/arch/arm/src/libarch.a(arm_releasestack.o)
 .debug_frame   0x000011cc       0x2c NuttX/nuttx/arch/arm/src/libarch.a(arm_stackframe.o)
 .debug_frame   0x000011f8       0x28 NuttX/nuttx/arch/arm/src/libarch.a(arm_switchcontext.o)
 .debug_frame   0x00001220       0x34 NuttX/nuttx/arch/arm/src/libarch.a(arm_unblocktask.o)
 .debug_frame   0x00001254       0x2c NuttX/nuttx/arch/arm/src/libarch.a(arm_usestack.o)
 .debug_frame   0x00001280       0xb8 NuttX/nuttx/arch/arm/src/libarch.a(arm_checkstack.o)
 .debug_frame   0x00001338       0x20 NuttX/nuttx/arch/arm/src/libarch.a(arm_idle.o)
 .debug_frame   0x00001358       0x38 NuttX/nuttx/arch/arm/src/libarch.a(arm_initialstate.o)
 .debug_frame   0x00001390       0x30 NuttX/nuttx/arch/arm/src/libarch.a(arm_schedulesigaction.o)
 .debug_frame   0x000013c0       0x2c NuttX/nuttx/arch/arm/src/libarch.a(arm_sigdeliver.o)
 .debug_frame   0x000013ec      0x1d8 NuttX/nuttx/arch/arm/src/libarch.a(stm32_serial.o)
 .debug_frame   0x000015c4      0x40c NuttX/nuttx/arch/arm/src/libarch.a(stm32_otgdev.o)
 .debug_frame   0x000019d0       0x2c NuttX/nuttx/arch/arm/src/libarch.a(arm_mdelay.o)
 .debug_frame   0x000019fc       0x28 NuttX/nuttx/mm/libmm.a(umm_initialize.o)
 .debug_frame   0x00001a24       0x20 NuttX/nuttx/mm/libmm.a(umm_free.o)
 .debug_frame   0x00001a44       0x20 NuttX/nuttx/mm/libmm.a(umm_malloc.o)
 .debug_frame   0x00001a64       0x20 NuttX/nuttx/mm/libmm.a(umm_zalloc.o)
 .debug_frame   0x00001a84       0x64 NuttX/nuttx/mm/libmm.a(mm_initialize.o)
 .debug_frame   0x00001ae8       0x60 NuttX/nuttx/mm/libmm.a(mm_sem.o)
 .debug_frame   0x00001b48       0x2c NuttX/nuttx/mm/libmm.a(mm_addfreechunk.o)
 .debug_frame   0x00001b74       0x20 NuttX/nuttx/mm/libmm.a(mm_size2ndx.o)
 .debug_frame   0x00001b94       0x34 NuttX/nuttx/mm/libmm.a(mm_free.o)
 .debug_frame   0x00001bc8       0x30 NuttX/nuttx/mm/libmm.a(mm_malloc.o)
 .debug_frame   0x00001bf8       0x2c NuttX/nuttx/mm/libmm.a(mm_zalloc.o)
 .debug_frame   0x00001c24       0x28 NuttX/nuttx/libs/libc/libc.a(lib_errno.o)
 .debug_frame   0x00001c4c       0x20 NuttX/nuttx/libs/libc/libc.a(sq_addlast.o)
 .debug_frame   0x00001c6c       0x20 NuttX/nuttx/libs/libc/libc.a(sq_rem.o)
 .debug_frame   0x00001c8c       0x20 NuttX/nuttx/libs/libc/libc.a(sq_remfirst.o)
 .debug_frame   0x00001cac       0x20 NuttX/nuttx/libs/libc/libc.a(sq_remafter.o)
 .debug_frame   0x00001ccc       0x20 NuttX/nuttx/libs/libc/libc.a(dq_addlast.o)
 .debug_frame   0x00001cec       0x20 NuttX/nuttx/libs/libc/libc.a(dq_addfirst.o)
 .debug_frame   0x00001d0c       0x20 NuttX/nuttx/libs/libc/libc.a(dq_rem.o)
 .debug_frame   0x00001d2c       0x28 NuttX/nuttx/libs/libc/libc.a(task_startup.o)
 .debug_frame   0x00001d54       0x38 NuttX/nuttx/libs/libc/libc.a(sem_init.o)
 .debug_frame   0x00001d8c       0x38 NuttX/nuttx/libs/libc/libc.a(sem_getvalue.o)
 .debug_frame   0x00001dc4       0x38 NuttX/nuttx/libs/libc/libc.a(sig_addset.o)
 .debug_frame   0x00001dfc       0x38 NuttX/nuttx/libs/libc/libc.a(sig_delset.o)
 .debug_frame   0x00001e34       0x20 NuttX/nuttx/libs/libc/libc.a(sig_emptyset.o)
 .debug_frame   0x00001e54       0x38 NuttX/nuttx/libs/libc/libc.a(sig_ismember.o)
 .debug_frame   0x00001e8c       0x44 NuttX/nuttx/libs/libc/libc.a(lib_printf.o)
 .debug_frame   0x00001ed0       0x2c NuttX/nuttx/libs/libc/libc.a(lib_libflushall.o)
 .debug_frame   0x00001efc       0x30 NuttX/nuttx/libs/libc/libc.a(lib_libfflush.o)
 .debug_frame   0x00001f2c       0x34 NuttX/nuttx/libs/libc/libc.a(lib_vfprintf.o)
 .debug_frame   0x00001f60       0xa4 NuttX/nuttx/libs/libc/libc.a(lib_libstream.o)
 .debug_frame   0x00002004       0x6c NuttX/nuttx/libs/libc/libc.a(lib_libfilesem.o)
 .debug_frame   0x00002070       0x4c NuttX/nuttx/libs/libc/libc.a(lib_stdoutstream.o)
 .debug_frame   0x000020bc       0x20 NuttX/nuttx/libs/libc/libc.a(lib_strcpy.o)
 .debug_frame   0x000020dc       0x28 NuttX/nuttx/libs/libc/libc.a(lib_strlcpy.o)
 .debug_frame   0x00002104       0x20 NuttX/nuttx/libs/libc/libc.a(lib_strlen.o)
 .debug_frame   0x00002124       0x28 NuttX/nuttx/libs/libc/libc.a(lib_strncpy.o)
 .debug_frame   0x0000214c       0x3c NuttX/nuttx/libs/libc/libc.a(lib_cfspeed.o)
 .debug_frame   0x00002188       0x28 NuttX/nuttx/libs/libc/libc.a(tls_getinfo.o)
 .debug_frame   0x000021b0       0x30 NuttX/nuttx/libs/libc/libc.a(lib_cxx_initialize.o)
 .debug_frame   0x000021e0       0x58 NuttX/nuttx/libs/libc/libc.a(lib_libvsprintf.o)
 .debug_frame   0x00002238       0x34 NuttX/nuttx/libs/libc/libc.a(lib_ultoa_invert.o)
 .debug_frame   0x0000226c       0x3c NuttX/nuttx/libs/libc/libc.a(lib_dtoa_engine.o)
 .debug_frame   0x000022a8       0x2c NuttX/nuttx/libs/libc/libc.a(lib_fputc.o)
 .debug_frame   0x000022d4       0x20 NuttX/nuttx/libs/libc/libc.a(lib_libnoflush.o)
 .debug_frame   0x000022f4       0x28 NuttX/nuttx/libs/libc/libc.a(lib_strnlen.o)
 .debug_frame   0x0000231c       0x30 NuttX/nuttx/libs/libc/libc.a(lib_libfwrite.o)
 .debug_frame   0x0000234c       0x28 NuttX/nuttx/libs/libc/libc.a(lib_rdflush.o)
 .debug_frame   0x00002374       0x20 NuttX/nuttx/libs/libc/libc.a(lib_fseek.o)
 .debug_frame   0x00002394       0x2c NuttX/nuttx/libs/libc/libc.a(lib_fseeko.o)
 .debug_frame   0x000023c0       0x20 NuttX/nuttx/libs/libc/libc.a(lib_wrflush.o)
 .debug_frame   0x000023e0      0x198 platforms/nuttx/src/bootloader/common/libbootloader.a(bl.c.obj)
 .debug_frame   0x00002578       0x80 platforms/nuttx/src/bootloader/common/lib/libbootloader_lib.a(cdcacm.c.obj)
 .debug_frame   0x000025f8       0x90 platforms/nuttx/src/bootloader/common/lib/libbootloader_lib.a(uart.c.obj)
 .debug_frame   0x00002688       0x28 NuttX/nuttx/boards/libboards.a(boardctl.o)
 .debug_frame   0x000026b0       0x2c NuttX/nuttx/drivers/libdrivers.a(drivers_initialize.o)
 .debug_frame   0x000026dc       0x58 NuttX/nuttx/drivers/libdrivers.a(dev_null.o)
 .debug_frame   0x00002734      0x22c NuttX/nuttx/drivers/libdrivers.a(serial.o)
 .debug_frame   0x00002960       0x5c NuttX/nuttx/drivers/libdrivers.a(serial_io.o)
 .debug_frame   0x000029bc       0x28 NuttX/nuttx/drivers/libdrivers.a(syslog_flush.o)
 .debug_frame   0x000029e4       0x20 NuttX/nuttx/drivers/libdrivers.a(syslog_initialize.o)
 .debug_frame   0x00002a04      0x354 NuttX/nuttx/drivers/libdrivers.a(cdcacm.o)
 .debug_frame   0x00002d58       0x6c NuttX/nuttx/drivers/libdrivers.a(cdcacm_desc.o)
 .debug_frame   0x00002dc4       0x60 NuttX/nuttx/drivers/libdrivers.a(syslog_channel.o)
 .debug_frame   0x00002e24       0x20 NuttX/nuttx/fs/libfs.a(fs_initialize.o)
 .debug_frame   0x00002e44      0x150 NuttX/nuttx/fs/libfs.a(fs_files.o)
 .debug_frame   0x00002f94       0x5c NuttX/nuttx/fs/libfs.a(fs_inode.o)
 .debug_frame   0x00002ff0       0x68 NuttX/nuttx/fs/libfs.a(fs_inodereserve.o)
 .debug_frame   0x00003058       0x40 NuttX/nuttx/fs/libfs.a(fs_inodesearch.o)
 .debug_frame   0x00003098       0x2c NuttX/nuttx/fs/libfs.a(fs_close.o)
 .debug_frame   0x000030c4       0x60 NuttX/nuttx/fs/libfs.a(fs_lseek.o)
 .debug_frame   0x00003124       0xf8 NuttX/nuttx/fs/libfs.a(fs_open.o)
 .debug_frame   0x0000321c       0x68 NuttX/nuttx/fs/libfs.a(fs_read.o)
 .debug_frame   0x00003284       0x6c NuttX/nuttx/fs/libfs.a(fs_write.o)
 .debug_frame   0x000032f0       0xc0 NuttX/nuttx/fs/libfs.a(fs_dir.o)
 .debug_frame   0x000033b0       0x3c NuttX/nuttx/fs/libfs.a(fs_fdopen.o)
 .debug_frame   0x000033ec       0x34 NuttX/nuttx/fs/libfs.a(fs_registerdriver.o)
 .debug_frame   0x00003420       0x2c NuttX/nuttx/fs/libfs.a(fs_unregisterdriver.o)
 .debug_frame   0x0000344c       0x2c NuttX/nuttx/fs/libfs.a(fs_inodeaddref.o)
 .debug_frame   0x00003478       0x2c NuttX/nuttx/fs/libfs.a(fs_inodefind.o)
 .debug_frame   0x000034a4       0x38 NuttX/nuttx/fs/libfs.a(fs_inoderelease.o)
 .debug_frame   0x000034dc       0x48 NuttX/nuttx/fs/libfs.a(fs_inoderemove.o)
 .debug_frame   0x00003524       0x30 NuttX/nuttx/fs/libfs.a(fs_inodefree.o)
 .debug_frame   0x00003554       0x48 NuttX/nuttx/sched/libsched.a(clock_initialize.o)
 .debug_frame   0x0000359c       0x20 NuttX/nuttx/sched/libsched.a(sched_getfiles.o)
 .debug_frame   0x000035bc       0x28 NuttX/nuttx/sched/libsched.a(sched_addreadytorun.o)
 .debug_frame   0x000035e4       0x2c NuttX/nuttx/sched/libsched.a(sched_removereadytorun.o)
 .debug_frame   0x00003610       0x30 NuttX/nuttx/sched/libsched.a(sched_mergepending.o)
 .debug_frame   0x00003640       0x20 NuttX/nuttx/sched/libsched.a(sched_getstreams.o)
 .debug_frame   0x00003660       0x20 NuttX/nuttx/sched/libsched.a(sched_idletask.o)
 .debug_frame   0x00003680       0x20 NuttX/nuttx/sched/libsched.a(sched_self.o)
 .debug_frame   0x000036a0       0x2c NuttX/nuttx/sched/libsched.a(sched_get_stackinfo.o)
 .debug_frame   0x000036cc       0x5c NuttX/nuttx/sched/libsched.a(sem_wait.o)
 .debug_frame   0x00003728       0x44 NuttX/nuttx/sched/libsched.a(sem_post.o)
 .debug_frame   0x0000376c       0x2c NuttX/nuttx/sched/libsched.a(sem_reset.o)
 .debug_frame   0x00003798       0x48 NuttX/nuttx/sched/libsched.a(sig_kill.o)
 .debug_frame   0x000037e0       0x28 NuttX/nuttx/sched/libsched.a(sig_usleep.o)
 .debug_frame   0x00003808       0x2c NuttX/nuttx/sched/libsched.a(task_exit.o)
 .debug_frame   0x00003834       0x20 NuttX/nuttx/sched/libsched.a(task_getpid.o)
 .debug_frame   0x00003854       0x38 NuttX/nuttx/sched/libsched.a(task_terminate.o)
 .debug_frame   0x0000388c       0x20 NuttX/nuttx/sched/libsched.a(task_gettid.o)
 .debug_frame   0x000038ac       0x4c NuttX/nuttx/sched/libsched.a(wd_start.o)
 .debug_frame   0x000038f8       0x5c NuttX/nuttx/sched/libsched.a(sig_nanosleep.o)
 .debug_frame   0x00003954       0x60 NuttX/nuttx/sched/libsched.a(sig_timedwait.o)
 .debug_frame   0x000039b4       0x44 NuttX/nuttx/arch/arm/src/libarch.a(stm32_timerisr.o)
 .debug_frame   0x000039f8       0x2c NuttX/nuttx/arch/arm/src/libarch.a(arm_nputs.o)
 .debug_frame   0x00003a24       0x20 NuttX/nuttx/mm/libmm.a(umm_realloc.o)
 .debug_frame   0x00003a44       0x48 NuttX/nuttx/mm/libmm.a(mm_realloc.o)
 .debug_frame   0x00003a8c       0x3c NuttX/nuttx/mm/libmm.a(mm_shrinkchunk.o)
 .debug_frame   0x00003ac8       0x40 NuttX/nuttx/libs/libc/libc.a(lib_umask.o)
 .debug_frame   0x00003b08       0x20 NuttX/nuttx/libs/libc/libc.a(sq_addfirst.o)
 .debug_frame   0x00003b28       0x20 NuttX/nuttx/libs/libc/libc.a(sq_addafter.o)
 .debug_frame   0x00003b48       0x20 NuttX/nuttx/libs/libc/libc.a(clock_ticks2time.o)
 .debug_frame   0x00003b68       0x2c NuttX/nuttx/libs/libc/libc.a(clock_time2ticks.o)
 .debug_frame   0x00003b94       0x38 NuttX/nuttx/libs/libc/libc.a(sem_setprotocol.o)
 .debug_frame   0x00003bcc       0x3c NuttX/nuttx/libs/libc/libc.a(lib_asprintf.o)
 .debug_frame   0x00003c08       0x40 NuttX/nuttx/libs/libc/libc.a(lib_snprintf.o)
 .debug_frame   0x00003c48       0x38 NuttX/nuttx/libs/libc/libc.a(lib_vasprintf.o)
 .debug_frame   0x00003c80       0x20 NuttX/nuttx/libs/libc/libc.a(lib_atol.o)
 .debug_frame   0x00003ca0       0x30 NuttX/nuttx/libs/libc/libc.a(lib_strtol.o)
 .debug_frame   0x00003cd0       0x3c NuttX/nuttx/libs/libc/libc.a(lib_strtoul.o)
 .debug_frame   0x00003d0c       0x2c NuttX/nuttx/libs/libc/libc.a(lib_checkbase.o)
 .debug_frame   0x00003d38       0x54 NuttX/nuttx/libs/libc/libc.a(lib_memoutstream.o)
 .debug_frame   0x00003d8c       0x30 NuttX/nuttx/libs/libc/libc.a(lib_nulloutstream.o)
 .debug_frame   0x00003dbc       0x20 NuttX/nuttx/libs/libc/libc.a(lib_isbasedigit.o)
 .debug_frame   0x00003ddc       0x2c NuttX/nuttx/libs/libc/libc.a(lib_skipspace.o)
 .debug_frame   0x00003e08       0x2c NuttX/nuttx/libs/libc/libc.a(lib_strdup.o)
 .debug_frame   0x00003e34       0x20 NuttX/nuttx/libs/libc/libc.a(lib_strtok.o)
 .debug_frame   0x00003e54       0x30 NuttX/nuttx/libs/libc/libc.a(lib_strtokr.o)
 .debug_frame   0x00003e84       0x20 NuttX/nuttx/libs/libc/libc.a(lib_strchr.o)
 .debug_frame   0x00003ea4       0x20 NuttX/nuttx/libs/libc/libc.a(lib_tcgetattr.o)
 .debug_frame   0x00003ec4       0x34 NuttX/nuttx/libs/libc/libc.a(lib_tcsetattr.o)
 .debug_frame   0x00003ef8       0x28 NuttX/nuttx/libs/libc/libc.a(task_getinfo.o)
 .debug_frame   0x00003f20       0x20 NuttX/nuttx/libs/libc/libc.a(lib_isspace.o)
 .debug_frame   0x00003f40       0x20 NuttX/nuttx/libs/libc/libc.a(lib_tcflush.o)
 .debug_frame   0x00003f60       0x20 NuttX/nuttx/libs/libc/libc.a(lib_tcdrain.o)
 .debug_frame   0x00003f80       0xd8 NuttX/nuttx/fs/libfs.a(fs_ioctl.o)
 .debug_frame   0x00004058       0x2c NuttX/nuttx/fs/libfs.a(fs_inodegetpath.o)
 .debug_frame   0x00004084       0x2c NuttX/nuttx/sched/libsched.a(sched_processtimer.o)
 .debug_frame   0x000040b0       0x2c NuttX/nuttx/libs/libc/libc.a(lib_strcat.o)
 .debug_frame   0x000040dc       0x44 /opt/homebrew/Cellar/arm-gcc-bin@13/13.2.rel1/bin/../lib/gcc/arm-none-eabi/13.2.1/thumb/v7e-m+dp/hard/libgcc.a(_aeabi_ldivmod.o)
 .debug_frame   0x00004120       0x2c /opt/homebrew/Cellar/arm-gcc-bin@13/13.2.rel1/bin/../lib/gcc/arm-none-eabi/13.2.1/thumb/v7e-m+dp/hard/libgcc.a(_aeabi_uldivmod.o)
 .debug_frame   0x0000414c       0x20 /opt/homebrew/Cellar/arm-gcc-bin@13/13.2.rel1/bin/../lib/gcc/arm-none-eabi/13.2.1/thumb/v7e-m+dp/hard/libgcc.a(_fixunsdfdi.o)
 .debug_frame   0x0000416c       0x34 /opt/homebrew/Cellar/arm-gcc-bin@13/13.2.rel1/bin/../lib/gcc/arm-none-eabi/13.2.1/thumb/v7e-m+dp/hard/libgcc.a(_udivmoddi4.o)
 .debug_frame   0x000041a0      0x1f4 platforms/nuttx/src/bootloader/stm/stm32h7/arch_bootloader/libarch_bootloader.a(main.c.obj)
 .debug_frame   0x00004394       0x88 platforms/nuttx/src/bootloader/stm/stm32h7/arch_bootloader/libarch_bootloader.a(systick.c.obj)
 .debug_frame   0x0000441c       0x44 platforms/nuttx/src/px4/stm/stm32h7/board_reset/libarch_board_reset.a(board_reset.cpp.obj)
 .debug_frame   0x00004460      0x20c NuttX/nuttx/arch/arm/src/libarch.a(stm32_flash.o)
 .debug_frame   0x0000466c       0x20 NuttX/nuttx/arch/arm/src/libarch.a(arm_systemreset.o)
 .debug_frame   0x0000468c       0x84 platforms/nuttx/src/bootloader/common/lib/libbootloader_lib.a(flash_cache.c.obj)
